SF:/home/piotr/learning/knights/crates/oldtimes-client/src/main.rs
FN:141,_RNvCs553B9KWrlv5_15oldtimes_client15initialize_game
FN:9,_RNvCs553B9KWrlv5_15oldtimes_client4main
FN:100,_RNvXCs553B9KWrlv5_15oldtimes_clientNtB2_10CorePluginNtNtCs7Trjtv3qP8e_8bevy_app6plugin6Plugin5build
FN:84,_RNvXs6_Cs553B9KWrlv5_15oldtimes_clientNtB5_13GameSystemSetNtNtNtCsg3jX3ocGYB6_8bevy_ecs8schedule3set9SystemSet8dyn_hash
FN:84,_RNvXs6_Cs553B9KWrlv5_15oldtimes_clientNtB5_13GameSystemSetNtNtNtCsg3jX3ocGYB6_8bevy_ecs8schedule3set9SystemSet9as_dyn_eq
FN:84,_RNvXs6_Cs553B9KWrlv5_15oldtimes_clientNtB5_13GameSystemSetNtNtNtCsg3jX3ocGYB6_8bevy_ecs8schedule3set9SystemSet9dyn_clone
FN:78,_RNvXs_Cs553B9KWrlv5_15oldtimes_clientNtB4_10StartupSetNtNtNtCsg3jX3ocGYB6_8bevy_ecs8schedule3set9SystemSet8dyn_hash
FN:78,_RNvXs_Cs553B9KWrlv5_15oldtimes_clientNtB4_10StartupSetNtNtNtCsg3jX3ocGYB6_8bevy_ecs8schedule3set9SystemSet9as_dyn_eq
FN:78,_RNvXs_Cs553B9KWrlv5_15oldtimes_clientNtB4_10StartupSetNtNtNtCsg3jX3ocGYB6_8bevy_ecs8schedule3set9SystemSet9dyn_clone
FNDA:0,_RNvCs553B9KWrlv5_15oldtimes_client15initialize_game
FNDA:0,_RNvCs553B9KWrlv5_15oldtimes_client4main
FNDA:0,_RNvXCs553B9KWrlv5_15oldtimes_clientNtB2_10CorePluginNtNtCs7Trjtv3qP8e_8bevy_app6plugin6Plugin5build
FNDA:0,_RNvXs6_Cs553B9KWrlv5_15oldtimes_clientNtB5_13GameSystemSetNtNtNtCsg3jX3ocGYB6_8bevy_ecs8schedule3set9SystemSet8dyn_hash
FNDA:0,_RNvXs6_Cs553B9KWrlv5_15oldtimes_clientNtB5_13GameSystemSetNtNtNtCsg3jX3ocGYB6_8bevy_ecs8schedule3set9SystemSet9as_dyn_eq
FNDA:0,_RNvXs6_Cs553B9KWrlv5_15oldtimes_clientNtB5_13GameSystemSetNtNtNtCsg3jX3ocGYB6_8bevy_ecs8schedule3set9SystemSet9dyn_clone
FNDA:0,_RNvXs_Cs553B9KWrlv5_15oldtimes_clientNtB4_10StartupSetNtNtNtCsg3jX3ocGYB6_8bevy_ecs8schedule3set9SystemSet8dyn_hash
FNDA:0,_RNvXs_Cs553B9KWrlv5_15oldtimes_clientNtB4_10StartupSetNtNtNtCsg3jX3ocGYB6_8bevy_ecs8schedule3set9SystemSet9as_dyn_eq
FNDA:0,_RNvXs_Cs553B9KWrlv5_15oldtimes_clientNtB4_10StartupSetNtNtNtCsg3jX3ocGYB6_8bevy_ecs8schedule3set9SystemSet9dyn_clone
FNF:5
FNH:0
DA:9,0
DA:10,0
DA:11,0
DA:12,0
DA:13,0
DA:14,0
DA:15,0
DA:16,0
DA:17,0
DA:18,0
DA:19,0
DA:20,0
DA:21,0
DA:22,0
DA:23,0
DA:24,0
DA:25,0
DA:26,0
DA:27,0
DA:28,0
DA:29,0
DA:30,0
DA:31,0
DA:32,0
DA:33,0
DA:34,0
DA:35,0
DA:36,0
DA:37,0
DA:38,0
DA:39,0
DA:40,0
DA:41,0
DA:42,0
DA:43,0
DA:44,0
DA:45,0
DA:46,0
DA:47,0
DA:48,0
DA:49,0
DA:50,0
DA:51,0
DA:52,0
DA:53,0
DA:54,0
DA:55,0
DA:56,0
DA:57,0
DA:58,0
DA:59,0
DA:60,0
DA:61,0
DA:62,0
DA:63,0
DA:64,0
DA:65,0
DA:66,0
DA:67,0
DA:68,0
DA:69,0
DA:70,0
DA:71,0
DA:72,0
DA:73,0
DA:74,0
DA:75,0
DA:76,0
DA:78,0
DA:84,0
DA:100,0
DA:101,0
DA:102,0
DA:103,0
DA:104,0
DA:105,0
DA:106,0
DA:107,0
DA:108,0
DA:109,0
DA:110,0
DA:111,0
DA:112,0
DA:113,0
DA:114,0
DA:115,0
DA:116,0
DA:117,0
DA:118,0
DA:119,0
DA:120,0
DA:121,0
DA:122,0
DA:123,0
DA:124,0
DA:125,0
DA:126,0
DA:127,0
DA:128,0
DA:129,0
DA:130,0
DA:131,0
DA:132,0
DA:133,0
DA:134,0
DA:135,0
DA:136,0
DA:137,0
DA:141,0
DA:142,0
DA:143,0
DA:144,0
DA:145,0
DA:146,0
DA:147,0
DA:148,0
DA:149,0
DA:150,0
DA:151,0
DA:152,0
DA:153,0
DA:154,0
DA:155,0
DA:156,0
DA:157,0
DA:158,0
DA:159,0
DA:160,0
DA:161,0
DA:162,0
BRF:0
BRH:0
LF:130
LH:0
end_of_record
SF:/home/piotr/learning/knights/crates/oldtimes-client/src/plugins/build_mode.rs
FN:87,_RNCNvNtNtCs553B9KWrlv5_15oldtimes_client7plugins10build_mode13ghost_manager0B7_
FN:144,_RNCNvNtNtCs553B9KWrlv5_15oldtimes_client7plugins10build_mode23place_building_on_click0B7_
FN:229,_RNCNvNtNtCs553B9KWrlv5_15oldtimes_client7plugins10build_mode24check_placement_validity0B7_
FN:62,_RNvNtNtCs553B9KWrlv5_15oldtimes_client7plugins10build_mode13ghost_manager
FN:129,_RNvNtNtCs553B9KWrlv5_15oldtimes_client7plugins10build_mode23place_building_on_click
FN:167,_RNvNtNtCs553B9KWrlv5_15oldtimes_client7plugins10build_mode23render_placed_buildings
FN:193,_RNvNtNtCs553B9KWrlv5_15oldtimes_client7plugins10build_mode24check_placement_validity
FN:42,_RNvNtNtCs553B9KWrlv5_15oldtimes_client7plugins10build_mode25handle_building_selection
FN:15,_RNvXNtNtCs553B9KWrlv5_15oldtimes_client7plugins10build_modeNtB2_15BuildModePluginNtNtCs7Trjtv3qP8e_8bevy_app6plugin6Plugin5build
FNDA:0,_RNCNvNtNtCs553B9KWrlv5_15oldtimes_client7plugins10build_mode13ghost_manager0B7_
FNDA:0,_RNCNvNtNtCs553B9KWrlv5_15oldtimes_client7plugins10build_mode23place_building_on_click0B7_
FNDA:0,_RNCNvNtNtCs553B9KWrlv5_15oldtimes_client7plugins10build_mode24check_placement_validity0B7_
FNDA:0,_RNvNtNtCs553B9KWrlv5_15oldtimes_client7plugins10build_mode13ghost_manager
FNDA:0,_RNvNtNtCs553B9KWrlv5_15oldtimes_client7plugins10build_mode23place_building_on_click
FNDA:0,_RNvNtNtCs553B9KWrlv5_15oldtimes_client7plugins10build_mode23render_placed_buildings
FNDA:0,_RNvNtNtCs553B9KWrlv5_15oldtimes_client7plugins10build_mode24check_placement_validity
FNDA:0,_RNvNtNtCs553B9KWrlv5_15oldtimes_client7plugins10build_mode25handle_building_selection
FNDA:0,_RNvXNtNtCs553B9KWrlv5_15oldtimes_client7plugins10build_modeNtB2_15BuildModePluginNtNtCs7Trjtv3qP8e_8bevy_app6plugin6Plugin5build
FNF:9
FNH:0
DA:15,0
DA:16,0
DA:17,0
DA:18,0
DA:19,0
DA:20,0
DA:21,0
DA:22,0
DA:23,0
DA:24,0
DA:25,0
DA:26,0
DA:27,0
DA:28,0
DA:42,0
DA:43,0
DA:44,0
DA:45,0
DA:46,0
DA:47,0
DA:48,0
DA:49,0
DA:50,0
DA:51,0
DA:52,0
DA:53,0
DA:54,0
DA:55,0
DA:56,0
DA:57,0
DA:58,0
DA:62,0
DA:63,0
DA:64,0
DA:65,0
DA:66,0
DA:67,0
DA:68,0
DA:69,0
DA:70,0
DA:71,0
DA:72,0
DA:73,0
DA:74,0
DA:75,0
DA:76,0
DA:77,0
DA:78,0
DA:79,0
DA:80,0
DA:81,0
DA:82,0
DA:83,0
DA:84,0
DA:85,0
DA:86,0
DA:87,0
DA:88,0
DA:89,0
DA:90,0
DA:91,0
DA:92,0
DA:93,0
DA:94,0
DA:95,0
DA:96,0
DA:97,0
DA:98,0
DA:99,0
DA:102,0
DA:103,0
DA:104,0
DA:105,0
DA:106,0
DA:108,0
DA:110,0
DA:111,0
DA:112,0
DA:113,0
DA:114,0
DA:115,0
DA:116,0
DA:117,0
DA:118,0
DA:119,0
DA:120,0
DA:121,0
DA:122,0
DA:123,0
DA:124,0
DA:125,0
DA:126,0
DA:129,0
DA:130,0
DA:131,0
DA:132,0
DA:133,0
DA:134,0
DA:135,0
DA:136,0
DA:137,0
DA:138,0
DA:139,0
DA:140,0
DA:141,0
DA:142,0
DA:143,0
DA:144,0
DA:145,0
DA:146,0
DA:147,0
DA:148,0
DA:149,0
DA:150,0
DA:151,0
DA:152,0
DA:153,0
DA:154,0
DA:155,0
DA:156,0
DA:157,0
DA:158,0
DA:159,0
DA:160,0
DA:161,0
DA:162,0
DA:163,0
DA:164,0
DA:167,0
DA:168,0
DA:169,0
DA:170,0
DA:171,0
DA:172,0
DA:173,0
DA:174,0
DA:175,0
DA:176,0
DA:177,0
DA:178,0
DA:179,0
DA:180,0
DA:181,0
DA:182,0
DA:183,0
DA:187,0
DA:188,0
DA:190,0
DA:193,0
DA:194,0
DA:195,0
DA:196,0
DA:197,0
DA:198,0
DA:199,0
DA:201,0
DA:202,0
DA:203,0
DA:204,0
DA:205,0
DA:206,0
DA:207,0
DA:208,0
DA:209,0
DA:213,0
DA:214,0
DA:215,0
DA:220,0
DA:221,0
DA:222,0
DA:223,0
DA:225,0
DA:226,0
DA:227,0
DA:228,0
DA:229,0
DA:230,0
DA:231,0
DA:232,0
DA:233,0
DA:234,0
DA:235,0
DA:236,0
DA:237,0
DA:238,0
DA:239,0
DA:240,0
DA:242,0
DA:243,0
DA:246,0
DA:247,0
BRF:0
BRH:0
LF:194
LH:0
end_of_record
SF:/home/piotr/learning/knights/crates/oldtimes-client/src/plugins/camera.rs
FN:35,_RNvNtNtCs553B9KWrlv5_15oldtimes_client7plugins6camera12setup_camera
FN:47,_RNvNtNtCs553B9KWrlv5_15oldtimes_client7plugins6camera17camera_pan_system
FN:77,_RNvNtNtCs553B9KWrlv5_15oldtimes_client7plugins6camera18camera_zoom_system
FN:98,_RNvNtNtCs553B9KWrlv5_15oldtimes_client7plugins6camera30update_cursor_world_pos_system
FN:19,_RNvXNtNtCs553B9KWrlv5_15oldtimes_client7plugins6cameraNtB2_12CameraPluginNtNtCs7Trjtv3qP8e_8bevy_app6plugin6Plugin5build
FN:12,_RNvXs2_NtNtCs553B9KWrlv5_15oldtimes_client7plugins6cameraNtB5_14CursorWorldPosNtNtNtCs649FzoMgw5V_4core3ops5deref5Deref5deref
FN:12,_RNvXs3_NtNtCs553B9KWrlv5_15oldtimes_client7plugins6cameraNtB5_14CursorWorldPosNtNtNtCs649FzoMgw5V_4core3ops5deref8DerefMut9deref_mut
FNDA:0,_RNvNtNtCs553B9KWrlv5_15oldtimes_client7plugins6camera12setup_camera
FNDA:0,_RNvNtNtCs553B9KWrlv5_15oldtimes_client7plugins6camera17camera_pan_system
FNDA:0,_RNvNtNtCs553B9KWrlv5_15oldtimes_client7plugins6camera18camera_zoom_system
FNDA:0,_RNvNtNtCs553B9KWrlv5_15oldtimes_client7plugins6camera30update_cursor_world_pos_system
FNDA:0,_RNvXNtNtCs553B9KWrlv5_15oldtimes_client7plugins6cameraNtB2_12CameraPluginNtNtCs7Trjtv3qP8e_8bevy_app6plugin6Plugin5build
FNDA:0,_RNvXs2_NtNtCs553B9KWrlv5_15oldtimes_client7plugins6cameraNtB5_14CursorWorldPosNtNtNtCs649FzoMgw5V_4core3ops5deref5Deref5deref
FNDA:0,_RNvXs3_NtNtCs553B9KWrlv5_15oldtimes_client7plugins6cameraNtB5_14CursorWorldPosNtNtNtCs649FzoMgw5V_4core3ops5deref8DerefMut9deref_mut
FNF:7
FNH:0
DA:12,0
DA:19,0
DA:20,0
DA:21,0
DA:22,0
DA:23,0
DA:24,0
DA:25,0
DA:26,0
DA:27,0
DA:28,0
DA:29,0
DA:30,0
DA:31,0
DA:35,0
DA:36,0
DA:37,0
DA:38,0
DA:39,0
DA:40,0
DA:41,0
DA:42,0
DA:43,0
DA:44,0
DA:47,0
DA:48,0
DA:49,0
DA:50,0
DA:51,0
DA:53,0
DA:54,0
DA:55,0
DA:56,0
DA:57,0
DA:58,0
DA:59,0
DA:60,0
DA:61,0
DA:62,0
DA:63,0
DA:64,0
DA:65,0
DA:66,0
DA:67,0
DA:69,0
DA:70,0
DA:71,0
DA:72,0
DA:73,0
DA:74,0
DA:77,0
DA:78,0
DA:79,0
DA:80,0
DA:81,0
DA:83,0
DA:84,0
DA:85,0
DA:86,0
DA:90,0
DA:91,0
DA:92,0
DA:93,0
DA:95,0
DA:98,0
DA:99,0
DA:100,0
DA:101,0
DA:102,0
DA:103,0
DA:104,0
DA:107,0
DA:109,0
DA:110,0
DA:111,0
DA:112,0
DA:113,0
DA:114,0
DA:115,0
BRF:0
BRH:0
LF:80
LH:0
end_of_record
SF:/home/piotr/learning/knights/crates/oldtimes-client/src/plugins/debug.rs
FN:51,_RNvNtNtCs553B9KWrlv5_15oldtimes_client7plugins5debug14setup_debug_ui
FN:41,_RNvNtNtCs553B9KWrlv5_15oldtimes_client7plugins5debug19debug_toggle_system
FN:111,_RNvNtNtCs553B9KWrlv5_15oldtimes_client7plugins5debug23tile_highlighter_system
FN:72,_RNvNtNtCs553B9KWrlv5_15oldtimes_client7plugins5debug27update_debug_overlay_system
FN:12,_RNvXNtNtCs553B9KWrlv5_15oldtimes_client7plugins5debugNtB2_11DebugPluginNtNtCs7Trjtv3qP8e_8bevy_app6plugin6Plugin5build
FNDA:0,_RNvNtNtCs553B9KWrlv5_15oldtimes_client7plugins5debug14setup_debug_ui
FNDA:0,_RNvNtNtCs553B9KWrlv5_15oldtimes_client7plugins5debug19debug_toggle_system
FNDA:0,_RNvNtNtCs553B9KWrlv5_15oldtimes_client7plugins5debug23tile_highlighter_system
FNDA:0,_RNvNtNtCs553B9KWrlv5_15oldtimes_client7plugins5debug27update_debug_overlay_system
FNDA:0,_RNvXNtNtCs553B9KWrlv5_15oldtimes_client7plugins5debugNtB2_11DebugPluginNtNtCs7Trjtv3qP8e_8bevy_app6plugin6Plugin5build
FNF:5
FNH:0
DA:12,0
DA:13,0
DA:14,0
DA:15,0
DA:16,0
DA:17,0
DA:18,0
DA:19,0
DA:20,0
DA:21,0
DA:22,0
DA:23,0
DA:24,0
DA:41,0
DA:42,0
DA:43,0
DA:44,0
DA:45,0
DA:46,0
DA:47,0
DA:48,0
DA:51,0
DA:52,0
DA:53,0
DA:54,0
DA:55,0
DA:56,0
DA:57,0
DA:58,0
DA:59,0
DA:60,0
DA:61,0
DA:62,0
DA:63,0
DA:64,0
DA:65,0
DA:66,0
DA:67,0
DA:68,0
DA:69,0
DA:72,0
DA:73,0
DA:74,0
DA:75,0
DA:76,0
DA:77,0
DA:78,0
DA:79,0
DA:80,0
DA:81,0
DA:82,0
DA:83,0
DA:84,0
DA:85,0
DA:86,0
DA:87,0
DA:88,0
DA:89,0
DA:90,0
DA:92,0
DA:93,0
DA:94,0
DA:96,0
DA:97,0
DA:98,0
DA:99,0
DA:101,0
DA:102,0
DA:103,0
DA:104,0
DA:105,0
DA:106,0
DA:107,0
DA:108,0
DA:111,0
DA:112,0
DA:113,0
DA:114,0
DA:115,0
DA:116,0
DA:117,0
DA:118,0
DA:119,0
DA:120,0
DA:122,0
DA:123,0
DA:124,0
DA:125,0
DA:126,0
DA:127,0
DA:128,0
DA:129,0
DA:130,0
DA:131,0
DA:132,0
DA:133,0
DA:134,0
DA:135,0
DA:136,0
DA:137,0
DA:138,0
DA:139,0
DA:140,0
DA:141,0
DA:142,0
DA:143,0
DA:144,0
DA:145,0
DA:146,0
DA:147,0
BRF:0
BRH:0
LF:110
LH:0
end_of_record
SF:/home/piotr/learning/knights/crates/oldtimes-client/src/plugins/economy.rs
FN:50,_RNvNtNtCs553B9KWrlv5_15oldtimes_client7plugins7economy25game_speed_control_system
FN:85,_RNvNtNtCs553B9KWrlv5_15oldtimes_client7plugins7economy30update_global_resources_system
FN:9,_RNvXNtNtCs553B9KWrlv5_15oldtimes_client7plugins7economyNtB2_13EconomyPluginNtNtCs7Trjtv3qP8e_8bevy_app6plugin6Plugin5build
FN:41,_RNvXs_NtNtCs553B9KWrlv5_15oldtimes_client7plugins7economyNtB4_9GameSpeedNtNtCs649FzoMgw5V_4core7default7Default7default
FNDA:0,_RNvNtNtCs553B9KWrlv5_15oldtimes_client7plugins7economy25game_speed_control_system
FNDA:0,_RNvNtNtCs553B9KWrlv5_15oldtimes_client7plugins7economy30update_global_resources_system
FNDA:0,_RNvXNtNtCs553B9KWrlv5_15oldtimes_client7plugins7economyNtB2_13EconomyPluginNtNtCs7Trjtv3qP8e_8bevy_app6plugin6Plugin5build
FNDA:0,_RNvXs_NtNtCs553B9KWrlv5_15oldtimes_client7plugins7economyNtB4_9GameSpeedNtNtCs649FzoMgw5V_4core7default7Default7default
FNF:4
FNH:0
DA:9,0
DA:10,0
DA:11,0
DA:12,0
DA:13,0
DA:14,0
DA:15,0
DA:16,0
DA:17,0
DA:18,0
DA:19,0
DA:20,0
DA:21,0
DA:41,0
DA:42,0
DA:43,0
DA:44,0
DA:45,0
DA:46,0
DA:50,0
DA:51,0
DA:52,0
DA:53,0
DA:54,0
DA:55,0
DA:56,0
DA:57,0
DA:58,0
DA:59,0
DA:60,0
DA:62,0
DA:65,0
DA:67,0
DA:68,0
DA:69,0
DA:70,0
DA:71,0
DA:72,0
DA:73,0
DA:74,0
DA:75,0
DA:76,0
DA:77,0
DA:78,0
DA:79,0
DA:80,0
DA:81,0
DA:82,0
DA:85,0
DA:86,0
DA:87,0
DA:88,0
DA:89,0
DA:92,0
DA:93,0
DA:94,0
DA:95,0
DA:99,0
DA:100,0
DA:101,0
DA:102,0
DA:103,0
BRF:0
BRH:0
LF:62
LH:0
end_of_record
SF:/home/piotr/learning/knights/crates/oldtimes-client/src/plugins/map.rs
FN:20,_RNvNtNtCs553B9KWrlv5_15oldtimes_client7plugins3map16spawn_map_system
FN:78,_RNvNtNtNtCs553B9KWrlv5_15oldtimes_client7plugins3map10map_coords13grid_to_world
FN:89,_RNvNtNtNtCs553B9KWrlv5_15oldtimes_client7plugins3map10map_coords13world_to_grid
FN:8,_RNvXNtNtCs553B9KWrlv5_15oldtimes_client7plugins3mapNtB2_9MapPluginNtNtCs7Trjtv3qP8e_8bevy_app6plugin6Plugin5build
FNDA:0,_RNvNtNtCs553B9KWrlv5_15oldtimes_client7plugins3map16spawn_map_system
FNDA:0,_RNvNtNtNtCs553B9KWrlv5_15oldtimes_client7plugins3map10map_coords13grid_to_world
FNDA:0,_RNvNtNtNtCs553B9KWrlv5_15oldtimes_client7plugins3map10map_coords13world_to_grid
FNDA:0,_RNvXNtNtCs553B9KWrlv5_15oldtimes_client7plugins3mapNtB2_9MapPluginNtNtCs7Trjtv3qP8e_8bevy_app6plugin6Plugin5build
FNF:4
FNH:0
DA:8,0
DA:9,0
DA:10,0
DA:20,0
DA:21,0
DA:22,0
DA:23,0
DA:24,0
DA:25,0
DA:26,0
DA:27,0
DA:28,0
DA:30,0
DA:31,0
DA:32,0
DA:33,0
DA:35,0
DA:36,0
DA:37,0
DA:38,0
DA:39,0
DA:40,0
DA:41,0
DA:42,0
DA:45,0
DA:46,0
DA:47,0
DA:48,0
DA:49,0
DA:50,0
DA:51,0
DA:52,0
DA:53,0
DA:54,0
DA:55,0
DA:56,0
DA:57,0
DA:60,0
DA:61,0
DA:62,0
DA:64,0
DA:78,0
DA:79,0
DA:80,0
DA:81,0
DA:82,0
DA:83,0
DA:84,0
DA:85,0
DA:89,0
DA:90,0
DA:91,0
DA:92,0
DA:93,0
DA:94,0
DA:95,0
DA:96,0
DA:97,0
DA:98,0
BRF:0
BRH:0
LF:59
LH:0
end_of_record
SF:/home/piotr/learning/knights/crates/oldtimes-client/src/plugins/ui.rs
FN:34,_RNCNvNtNtCs553B9KWrlv5_15oldtimes_client7plugins2ui8setup_ui0B7_
FN:93,_RNvNtNtCs553B9KWrlv5_15oldtimes_client7plugins2ui32update_resource_display_combined
FN:18,_RNvNtNtCs553B9KWrlv5_15oldtimes_client7plugins2ui8setup_ui
FN:111,_RNvXNtNtCs553B9KWrlv5_15oldtimes_client7plugins2uiNtB2_8UiPluginNtNtCs7Trjtv3qP8e_8bevy_app6plugin6Plugin5build
FNDA:0,_RNCNvNtNtCs553B9KWrlv5_15oldtimes_client7plugins2ui8setup_ui0B7_
FNDA:0,_RNvNtNtCs553B9KWrlv5_15oldtimes_client7plugins2ui32update_resource_display_combined
FNDA:0,_RNvNtNtCs553B9KWrlv5_15oldtimes_client7plugins2ui8setup_ui
FNDA:0,_RNvXNtNtCs553B9KWrlv5_15oldtimes_client7plugins2uiNtB2_8UiPluginNtNtCs7Trjtv3qP8e_8bevy_app6plugin6Plugin5build
FNF:4
FNH:0
DA:18,0
DA:19,0
DA:20,0
DA:21,0
DA:22,0
DA:23,0
DA:24,0
DA:25,0
DA:26,0
DA:27,0
DA:28,0
DA:29,0
DA:30,0
DA:31,0
DA:32,0
DA:33,0
DA:34,0
DA:35,0
DA:36,0
DA:37,0
DA:38,0
DA:39,0
DA:40,0
DA:41,0
DA:42,0
DA:43,0
DA:44,0
DA:45,0
DA:46,0
DA:47,0
DA:48,0
DA:49,0
DA:50,0
DA:51,0
DA:52,0
DA:53,0
DA:54,0
DA:55,0
DA:56,0
DA:57,0
DA:58,0
DA:59,0
DA:60,0
DA:61,0
DA:62,0
DA:63,0
DA:64,0
DA:65,0
DA:66,0
DA:67,0
DA:68,0
DA:69,0
DA:70,0
DA:71,0
DA:72,0
DA:73,0
DA:74,0
DA:75,0
DA:76,0
DA:77,0
DA:78,0
DA:79,0
DA:80,0
DA:81,0
DA:82,0
DA:83,0
DA:84,0
DA:85,0
DA:86,0
DA:87,0
DA:88,0
DA:89,0
DA:93,0
DA:94,0
DA:95,0
DA:96,0
DA:97,0
DA:98,0
DA:99,0
DA:100,0
DA:101,0
DA:102,0
DA:103,0
DA:104,0
DA:105,0
DA:106,0
DA:107,0
DA:108,0
DA:111,0
DA:112,0
DA:113,0
DA:114,0
DA:115,0
DA:116,0
DA:117,0
BRF:0
BRH:0
LF:97
LH:0
end_of_record
SF:/home/piotr/learning/knights/crates/oldtimes-core/src/assets.rs
FN:107,_RNCNvMNtCsiJMiApqKWrq_13oldtimes_core6assetsNtB4_22SpriteMetadataResource14load_atlas_map0B6_
FN:110,_RNCNvMNtCsiJMiApqKWrq_13oldtimes_core6assetsNtB4_22SpriteMetadataResource14load_atlas_maps_0B6_
FN:89,_RNCNvMNtCsiJMiApqKWrq_13oldtimes_core6assetsNtB4_22SpriteMetadataResource14load_from_file0B6_
FN:92,_RNCNvMNtCsiJMiApqKWrq_13oldtimes_core6assetsNtB4_22SpriteMetadataResource14load_from_files_0B6_
FN:123,_RNvMNtCsiJMiApqKWrq_13oldtimes_core6assetsNtB2_22SpriteMetadataResource12get_building
FN:133,_RNvMNtCsiJMiApqKWrq_13oldtimes_core6assetsNtB2_22SpriteMetadataResource13get_atlas_map
FN:138,_RNvMNtCsiJMiApqKWrq_13oldtimes_core6assetsNtB2_22SpriteMetadataResource14get_frame_data
FN:105,_RNvMNtCsiJMiApqKWrq_13oldtimes_core6assetsNtB2_22SpriteMetadataResource14load_atlas_map
FN:87,_RNvMNtCsiJMiApqKWrq_13oldtimes_core6assetsNtB2_22SpriteMetadataResource14load_from_file
FN:118,_RNvMNtCsiJMiApqKWrq_13oldtimes_core6assetsNtB2_22SpriteMetadataResource8get_tile
FN:128,_RNvMNtCsiJMiApqKWrq_13oldtimes_core6assetsNtB2_22SpriteMetadataResource8get_unit
FN:222,_RNvNtCsiJMiApqKWrq_13oldtimes_core6assets29get_sprite_path_from_metadata
FN:236,_RNvNtCsiJMiApqKWrq_13oldtimes_core6assets29get_sprite_size_from_metadata
FN:144,_RNvNtCsiJMiApqKWrq_13oldtimes_core6assets27load_sprite_metadata_system
FN:182,_RNvNtCsiJMiApqKWrq_13oldtimes_core6assets29load_sprite_metadata_resource
FN:150,_RNvNtCsiJMiApqKWrq_13oldtimes_core6assets33hot_reload_sprite_metadata_system
FN:350,_RNvNtNtCsiJMiApqKWrq_13oldtimes_core6assets17integration_testss_18test_atlas_support
FN:333,_RNvNtNtCsiJMiApqKWrq_13oldtimes_core6assets17integration_testss_27test_backward_compatibility
FN:256,_RNvNtNtCsiJMiApqKWrq_13oldtimes_core6assets17integration_testss_34test_metadata_driven_asset_loading
FNDA:0,_RNCNvMNtCsiJMiApqKWrq_13oldtimes_core6assetsNtB4_22SpriteMetadataResource14load_atlas_map0B6_
FNDA:0,_RNCNvMNtCsiJMiApqKWrq_13oldtimes_core6assetsNtB4_22SpriteMetadataResource14load_atlas_maps_0B6_
FNDA:0,_RNCNvMNtCsiJMiApqKWrq_13oldtimes_core6assetsNtB4_22SpriteMetadataResource14load_from_file0B6_
FNDA:0,_RNCNvMNtCsiJMiApqKWrq_13oldtimes_core6assetsNtB4_22SpriteMetadataResource14load_from_files_0B6_
FNDA:3,_RNvMNtCsiJMiApqKWrq_13oldtimes_core6assetsNtB2_22SpriteMetadataResource12get_building
FNDA:1,_RNvMNtCsiJMiApqKWrq_13oldtimes_core6assetsNtB2_22SpriteMetadataResource13get_atlas_map
FNDA:1,_RNvMNtCsiJMiApqKWrq_13oldtimes_core6assetsNtB2_22SpriteMetadataResource14get_frame_data
FNDA:1,_RNvMNtCsiJMiApqKWrq_13oldtimes_core6assetsNtB2_22SpriteMetadataResource14load_atlas_map
FNDA:2,_RNvMNtCsiJMiApqKWrq_13oldtimes_core6assetsNtB2_22SpriteMetadataResource14load_from_file
FNDA:4,_RNvMNtCsiJMiApqKWrq_13oldtimes_core6assetsNtB2_22SpriteMetadataResource8get_tile
FNDA:3,_RNvMNtCsiJMiApqKWrq_13oldtimes_core6assetsNtB2_22SpriteMetadataResource8get_unit
FNDA:5,_RNvNtCsiJMiApqKWrq_13oldtimes_core6assets29get_sprite_path_from_metadata
FNDA:4,_RNvNtCsiJMiApqKWrq_13oldtimes_core6assets29get_sprite_size_from_metadata
FNDA:0,_RNvNtCsiJMiApqKWrq_13oldtimes_core6assets27load_sprite_metadata_system
FNDA:0,_RNvNtCsiJMiApqKWrq_13oldtimes_core6assets29load_sprite_metadata_resource
FNDA:0,_RNvNtCsiJMiApqKWrq_13oldtimes_core6assets33hot_reload_sprite_metadata_system
FNDA:1,_RNvNtNtCsiJMiApqKWrq_13oldtimes_core6assets17integration_testss_18test_atlas_support
FNDA:1,_RNvNtNtCsiJMiApqKWrq_13oldtimes_core6assets17integration_testss_27test_backward_compatibility
FNDA:1,_RNvNtNtCsiJMiApqKWrq_13oldtimes_core6assets17integration_testss_34test_metadata_driven_asset_loading
FNF:19
FNH:12
DA:87,2
DA:88,2
DA:89,2
DA:91,2
DA:92,2
DA:94,2
DA:95,0
DA:96,0
DA:97,0
DA:98,0
DA:101,2
DA:102,2
DA:105,1
DA:106,1
DA:107,1
DA:109,1
DA:110,1
DA:112,1
DA:114,1
DA:115,1
DA:118,4
DA:119,4
DA:120,4
DA:123,3
DA:124,3
DA:125,3
DA:128,3
DA:129,3
DA:130,3
DA:133,1
DA:134,1
DA:135,1
DA:138,1
DA:139,1
DA:140,1
DA:144,0
DA:145,0
DA:146,0
DA:147,0
DA:150,0
DA:155,0
DA:159,0
DA:161,0
DA:162,0
DA:163,0
DA:164,0
DA:165,0
DA:166,0
DA:167,0
DA:168,0
DA:171,0
DA:174,0
DA:175,0
DA:176,0
DA:177,0
DA:179,0
DA:182,0
DA:183,0
DA:184,0
DA:185,0
DA:186,0
DA:187,0
DA:188,0
DA:189,0
DA:191,0
DA:192,0
DA:193,0
DA:194,0
DA:195,0
DA:196,0
DA:198,0
DA:199,0
DA:202,0
DA:205,0
DA:206,0
DA:207,0
DA:208,0
DA:210,0
DA:211,0
DA:212,0
DA:218,0
DA:219,0
DA:222,5
DA:223,5
DA:224,5
DA:225,5
DA:226,5
DA:227,5
DA:228,5
DA:229,2
DA:230,1
DA:231,0
DA:233,5
DA:236,4
DA:237,4
DA:238,4
DA:239,4
DA:240,4
DA:241,4
DA:242,4
DA:243,3
DA:244,1
DA:245,0
DA:247,4
DA:256,1
DA:257,1
DA:258,1
DA:259,1
DA:260,1
DA:261,1
DA:262,1
DA:263,1
DA:264,1
DA:265,1
DA:266,1
DA:267,1
DA:268,1
DA:269,1
DA:270,1
DA:271,1
DA:272,1
DA:273,1
DA:274,1
DA:275,1
DA:276,1
DA:277,1
DA:278,1
DA:279,1
DA:280,1
DA:281,1
DA:282,1
DA:283,1
DA:284,1
DA:285,1
DA:286,1
DA:287,1
DA:288,1
DA:289,1
DA:290,1
DA:291,1
DA:292,1
DA:293,1
DA:294,1
DA:295,1
DA:296,1
DA:297,1
DA:299,1
DA:300,1
DA:301,1
DA:302,1
DA:304,1
DA:305,1
DA:306,1
DA:307,1
DA:310,1
DA:311,1
DA:312,1
DA:313,1
DA:316,1
DA:317,1
DA:318,1
DA:319,1
DA:321,1
DA:322,1
DA:323,1
DA:324,1
DA:326,1
DA:327,1
DA:328,1
DA:329,1
DA:330,1
DA:333,1
DA:334,1
DA:335,1
DA:336,1
DA:337,1
DA:338,1
DA:339,1
DA:340,1
DA:341,1
DA:343,1
DA:344,1
DA:345,1
DA:346,1
DA:347,1
DA:350,1
DA:351,1
DA:352,1
DA:353,1
DA:354,1
DA:355,1
DA:356,1
DA:357,1
DA:358,1
DA:359,1
DA:360,1
DA:361,1
DA:362,1
DA:363,1
DA:364,1
DA:365,1
DA:366,1
DA:367,1
DA:368,1
DA:369,1
DA:370,1
DA:371,1
DA:372,1
DA:373,1
DA:374,1
DA:375,1
DA:376,1
DA:377,1
DA:378,1
DA:379,1
DA:380,1
DA:381,1
DA:382,1
DA:383,1
DA:384,1
DA:385,1
DA:386,1
DA:387,1
DA:388,1
DA:389,1
DA:390,1
DA:391,1
DA:392,1
DA:393,1
DA:394,1
DA:395,1
DA:396,1
DA:397,1
DA:398,1
DA:399,1
DA:400,1
DA:401,1
DA:402,1
DA:403,1
DA:404,1
DA:405,1
DA:406,1
DA:407,1
DA:408,1
DA:409,1
DA:410,1
DA:411,1
DA:412,1
DA:413,1
DA:414,1
DA:416,1
DA:417,1
DA:418,1
DA:419,1
DA:420,1
DA:423,1
DA:424,1
DA:425,1
DA:426,1
DA:427,1
BRF:0
BRH:0
LF:264
LH:207
end_of_record
SF:/home/piotr/learning/knights/crates/oldtimes-core/src/components.rs
FN:17,_RNvMNtCsiJMiApqKWrq_13oldtimes_core10componentsNtB2_8Position11distance_to
FN:13,_RNvMNtCsiJMiApqKWrq_13oldtimes_core10componentsNtB2_8Position3new
FN:74,_RNvMs0_NtCsiJMiApqKWrq_13oldtimes_core10componentsNtB5_9Stockpile11remove_item
FN:55,_RNvMs0_NtCsiJMiApqKWrq_13oldtimes_core10componentsNtB5_9Stockpile11total_items
FN:88,_RNvMs0_NtCsiJMiApqKWrq_13oldtimes_core10componentsNtB5_9Stockpile14get_item_count
FN:59,_RNvMs0_NtCsiJMiApqKWrq_13oldtimes_core10componentsNtB5_9Stockpile15available_space
FN:48,_RNvMs0_NtCsiJMiApqKWrq_13oldtimes_core10componentsNtB5_9Stockpile3new
FN:67,_RNvMs0_NtCsiJMiApqKWrq_13oldtimes_core10componentsNtB5_9Stockpile8add_item
FN:104,_RNvMs1_NtCsiJMiApqKWrq_13oldtimes_core10componentsNtB5_8Building3new
FN:174,_RNvMs3_NtCsiJMiApqKWrq_13oldtimes_core10componentsNtB5_6Worker3new
FN:216,_RNvMs4_NtCsiJMiApqKWrq_13oldtimes_core10componentsNtB5_11Pathfinding11is_complete
FN:207,_RNvMs4_NtCsiJMiApqKWrq_13oldtimes_core10componentsNtB5_11Pathfinding14advance_target
FN:203,_RNvMs4_NtCsiJMiApqKWrq_13oldtimes_core10componentsNtB5_11Pathfinding14current_target
FN:195,_RNvMs4_NtCsiJMiApqKWrq_13oldtimes_core10componentsNtB5_11Pathfinding3new
FN:248,_RNvMs5_NtCsiJMiApqKWrq_13oldtimes_core10componentsNtB5_4Tile11is_passable
FN:238,_RNvMs5_NtCsiJMiApqKWrq_13oldtimes_core10componentsNtB5_4Tile13movement_cost
FN:63,_RNvMs0_NtCsiJMiApqKWrq_13oldtimes_core10componentsNtB5_9Stockpile9can_store
FN:125,_RNvMs2_NtCsiJMiApqKWrq_13oldtimes_core10componentsNtB5_8Producer3new
FN:35,_RNvXs_NtCsiJMiApqKWrq_13oldtimes_core10componentsNtB4_4RoadNtNtCs649FzoMgw5V_4core7default7Default7default
FNDA:201,_RNvMNtCsiJMiApqKWrq_13oldtimes_core10componentsNtB2_8Position11distance_to
FNDA:1392,_RNvMNtCsiJMiApqKWrq_13oldtimes_core10componentsNtB2_8Position3new
FNDA:0,_RNvMs0_NtCsiJMiApqKWrq_13oldtimes_core10componentsNtB5_9Stockpile11remove_item
FNDA:8,_RNvMs0_NtCsiJMiApqKWrq_13oldtimes_core10componentsNtB5_9Stockpile11total_items
FNDA:5,_RNvMs0_NtCsiJMiApqKWrq_13oldtimes_core10componentsNtB5_9Stockpile14get_item_count
FNDA:8,_RNvMs0_NtCsiJMiApqKWrq_13oldtimes_core10componentsNtB5_9Stockpile15available_space
FNDA:6,_RNvMs0_NtCsiJMiApqKWrq_13oldtimes_core10componentsNtB5_9Stockpile3new
FNDA:5,_RNvMs0_NtCsiJMiApqKWrq_13oldtimes_core10componentsNtB5_9Stockpile8add_item
FNDA:4,_RNvMs1_NtCsiJMiApqKWrq_13oldtimes_core10componentsNtB5_8Building3new
FNDA:21,_RNvMs3_NtCsiJMiApqKWrq_13oldtimes_core10componentsNtB5_6Worker3new
FNDA:0,_RNvMs4_NtCsiJMiApqKWrq_13oldtimes_core10componentsNtB5_11Pathfinding11is_complete
FNDA:0,_RNvMs4_NtCsiJMiApqKWrq_13oldtimes_core10componentsNtB5_11Pathfinding14advance_target
FNDA:0,_RNvMs4_NtCsiJMiApqKWrq_13oldtimes_core10componentsNtB5_11Pathfinding14current_target
FNDA:0,_RNvMs4_NtCsiJMiApqKWrq_13oldtimes_core10componentsNtB5_11Pathfinding3new
FNDA:1171,_RNvMs5_NtCsiJMiApqKWrq_13oldtimes_core10componentsNtB5_4Tile11is_passable
FNDA:1121,_RNvMs5_NtCsiJMiApqKWrq_13oldtimes_core10componentsNtB5_4Tile13movement_cost
FNDA:0,_RNvMs0_NtCsiJMiApqKWrq_13oldtimes_core10componentsNtB5_9Stockpile9can_store
FNDA:0,_RNvMs2_NtCsiJMiApqKWrq_13oldtimes_core10componentsNtB5_8Producer3new
FNDA:0,_RNvXs_NtCsiJMiApqKWrq_13oldtimes_core10componentsNtB4_4RoadNtNtCs649FzoMgw5V_4core7default7Default7default
FNF:19
FNH:11
DA:13,1392
DA:14,1392
DA:15,1392
DA:17,201
DA:18,201
DA:19,201
DA:20,201
DA:21,201
DA:35,0
DA:36,0
DA:37,0
DA:48,6
DA:49,6
DA:50,6
DA:51,6
DA:52,6
DA:53,6
DA:55,8
DA:56,8
DA:57,8
DA:59,8
DA:60,8
DA:61,8
DA:63,0
DA:64,0
DA:65,0
DA:67,5
DA:68,5
DA:69,5
DA:70,5
DA:71,5
DA:72,5
DA:74,0
DA:75,0
DA:76,0
DA:77,0
DA:78,0
DA:79,0
DA:80,0
DA:81,0
DA:82,0
DA:83,0
DA:84,0
DA:85,0
DA:86,0
DA:88,5
DA:89,5
DA:90,5
DA:104,4
DA:105,4
DA:106,4
DA:107,4
DA:108,4
DA:109,4
DA:110,4
DA:111,4
DA:112,4
DA:125,0
DA:126,0
DA:127,0
DA:128,0
DA:129,0
DA:130,0
DA:131,0
DA:132,0
DA:174,21
DA:175,21
DA:176,21
DA:177,21
DA:178,21
DA:179,21
DA:180,21
DA:181,21
DA:182,21
DA:183,21
DA:195,0
DA:196,0
DA:197,0
DA:198,0
DA:199,0
DA:200,0
DA:201,0
DA:203,0
DA:204,0
DA:205,0
DA:207,0
DA:208,0
DA:209,0
DA:210,0
DA:212,0
DA:214,0
DA:216,0
DA:217,0
DA:218,0
DA:238,1121
DA:239,1121
DA:240,1121
DA:241,0
DA:242,0
DA:243,0
DA:244,0
DA:246,1121
DA:248,1171
DA:249,1171
DA:250,1171
BRF:0
BRH:0
LF:105
LH:55
end_of_record
SF:/home/piotr/learning/knights/crates/oldtimes-core/src/data.rs
FN:335,_RNvNtNtCsiJMiApqKWrq_13oldtimes_core4data5testss_16test_mod_loading
FN:318,_RNvNtNtCsiJMiApqKWrq_13oldtimes_core4data5testss_33test_create_and_load_default_data
FN:283,_RNvMs_NtCsiJMiApqKWrq_13oldtimes_core4dataNtB4_9ModLoader15get_loaded_mods
FN:233,_RNCINvMs_NtCsiJMiApqKWrq_13oldtimes_core4dataNtB7_9ModLoader9load_modsRNtNtCsiHPLOJXd9bG_3std4path7PathBufE0B9_
FN:79,_RINvMNtCsiJMiApqKWrq_13oldtimes_core4dataNtB3_10DataLoader12load_recipesRNtNtCsiHPLOJXd9bG_3std4path7PathBufEB5_
FN:92,_RINvMNtCsiJMiApqKWrq_13oldtimes_core4dataNtB3_10DataLoader12load_workersRNtNtCsiHPLOJXd9bG_3std4path7PathBufEB5_
FN:65,_RINvMNtCsiJMiApqKWrq_13oldtimes_core4dataNtB3_10DataLoader14load_buildingsRNtNtCsiHPLOJXd9bG_3std4path7PathBufEB5_
FN:105,_RINvMNtCsiJMiApqKWrq_13oldtimes_core4dataNtB3_10DataLoader18load_mapgen_configRNtNtCsiHPLOJXd9bG_3std4path7PathBufEB5_
FN:24,_RINvMNtCsiJMiApqKWrq_13oldtimes_core4dataNtB3_10DataLoader19load_from_directoryRNtNtCsiHPLOJXd9bG_3std4path4PathEB5_
FN:24,_RINvMNtCsiJMiApqKWrq_13oldtimes_core4dataNtB3_10DataLoader19load_from_directoryRNtNtCsiHPLOJXd9bG_3std4path7PathBufEB5_
FN:244,_RINvMs_NtCsiJMiApqKWrq_13oldtimes_core4dataNtB5_9ModLoader13load_mod_infoRNtNtCsiHPLOJXd9bG_3std4path7PathBufEB7_
FN:251,_RINvMs_NtCsiJMiApqKWrq_13oldtimes_core4dataNtB5_9ModLoader9apply_modRNtNtCsiHPLOJXd9bG_3std4path7PathBufEB7_
FN:205,_RINvMs_NtCsiJMiApqKWrq_13oldtimes_core4dataNtB5_9ModLoader9load_modsRNtNtCsiHPLOJXd9bG_3std4path7PathBufEB7_
FN:289,_RINvNtCsiJMiApqKWrq_13oldtimes_core4data25create_default_data_filesRNtNtCsiHPLOJXd9bG_3std4path7PathBufEB4_
FN:138,_RNvMNtCsiJMiApqKWrq_13oldtimes_core4dataNtB2_10DataLoader15validate_recipe
FN:166,_RNvMNtCsiJMiApqKWrq_13oldtimes_core4dataNtB2_10DataLoader15validate_worker
FN:116,_RNvMNtCsiJMiApqKWrq_13oldtimes_core4dataNtB2_10DataLoader17validate_building
FN:15,_RNvMNtCsiJMiApqKWrq_13oldtimes_core4dataNtB2_10DataLoader3new
FN:198,_RNvMs_NtCsiJMiApqKWrq_13oldtimes_core4dataNtB4_9ModLoader3new
FNDA:1,_RNvNtNtCsiJMiApqKWrq_13oldtimes_core4data5testss_16test_mod_loading
FNDA:1,_RNvNtNtCsiJMiApqKWrq_13oldtimes_core4data5testss_33test_create_and_load_default_data
FNDA:0,_RNvMs_NtCsiJMiApqKWrq_13oldtimes_core4dataNtB4_9ModLoader15get_loaded_mods
FNDA:0,_RNCINvMs_NtCsiJMiApqKWrq_13oldtimes_core4dataNtB7_9ModLoader9load_modsRNtNtCsiHPLOJXd9bG_3std4path7PathBufE0B9_
FNDA:2,_RINvMNtCsiJMiApqKWrq_13oldtimes_core4dataNtB3_10DataLoader12load_recipesRNtNtCsiHPLOJXd9bG_3std4path7PathBufEB5_
FNDA:2,_RINvMNtCsiJMiApqKWrq_13oldtimes_core4dataNtB3_10DataLoader12load_workersRNtNtCsiHPLOJXd9bG_3std4path7PathBufEB5_
FNDA:2,_RINvMNtCsiJMiApqKWrq_13oldtimes_core4dataNtB3_10DataLoader14load_buildingsRNtNtCsiHPLOJXd9bG_3std4path7PathBufEB5_
FNDA:1,_RINvMNtCsiJMiApqKWrq_13oldtimes_core4dataNtB3_10DataLoader18load_mapgen_configRNtNtCsiHPLOJXd9bG_3std4path7PathBufEB5_
FNDA:1,_RINvMNtCsiJMiApqKWrq_13oldtimes_core4dataNtB3_10DataLoader19load_from_directoryRNtNtCsiHPLOJXd9bG_3std4path4PathEB5_
FNDA:1,_RINvMNtCsiJMiApqKWrq_13oldtimes_core4dataNtB3_10DataLoader19load_from_directoryRNtNtCsiHPLOJXd9bG_3std4path7PathBufEB5_
FNDA:1,_RINvMs_NtCsiJMiApqKWrq_13oldtimes_core4dataNtB5_9ModLoader13load_mod_infoRNtNtCsiHPLOJXd9bG_3std4path7PathBufEB7_
FNDA:1,_RINvMs_NtCsiJMiApqKWrq_13oldtimes_core4dataNtB5_9ModLoader9apply_modRNtNtCsiHPLOJXd9bG_3std4path7PathBufEB7_
FNDA:1,_RINvMs_NtCsiJMiApqKWrq_13oldtimes_core4dataNtB5_9ModLoader9load_modsRNtNtCsiHPLOJXd9bG_3std4path7PathBufEB7_
FNDA:1,_RINvNtCsiJMiApqKWrq_13oldtimes_core4data25create_default_data_filesRNtNtCsiHPLOJXd9bG_3std4path7PathBufEB4_
FNDA:6,_RNvMNtCsiJMiApqKWrq_13oldtimes_core4dataNtB2_10DataLoader15validate_recipe
FNDA:1,_RNvMNtCsiJMiApqKWrq_13oldtimes_core4dataNtB2_10DataLoader15validate_worker
FNDA:6,_RNvMNtCsiJMiApqKWrq_13oldtimes_core4dataNtB2_10DataLoader17validate_building
FNDA:2,_RNvMNtCsiJMiApqKWrq_13oldtimes_core4dataNtB2_10DataLoader3new
FNDA:1,_RNvMs_NtCsiJMiApqKWrq_13oldtimes_core4dataNtB4_9ModLoader3new
FNF:18
FNH:16
DA:15,2
DA:16,2
DA:17,2
DA:18,2
DA:19,2
DA:20,2
DA:21,2
DA:24,2
DA:25,2
DA:26,2
DA:27,2
DA:28,2
DA:29,2
DA:30,2
DA:31,2
DA:32,2
DA:33,2
DA:34,2
DA:35,0
DA:38,2
DA:39,2
DA:40,2
DA:41,0
DA:44,2
DA:45,2
DA:46,2
DA:47,0
DA:50,2
DA:51,2
DA:52,1
DA:54,1
DA:57,2
DA:58,2
DA:59,2
DA:60,2
DA:61,2
DA:62,2
DA:63,2
DA:65,2
DA:66,2
DA:67,2
DA:68,2
DA:70,8
DA:71,6
DA:72,6
DA:75,2
DA:76,2
DA:77,2
DA:79,2
DA:80,2
DA:81,2
DA:83,8
DA:84,6
DA:85,6
DA:88,2
DA:89,2
DA:90,2
DA:92,2
DA:93,2
DA:94,2
DA:96,3
DA:97,1
DA:98,1
DA:101,2
DA:102,2
DA:103,2
DA:105,1
DA:106,1
DA:107,1
DA:108,1
DA:109,1
DA:110,1
DA:112,1
DA:113,1
DA:114,1
DA:116,6
DA:117,6
DA:118,0
DA:119,6
DA:120,6
DA:121,6
DA:122,0
DA:123,0
DA:124,0
DA:125,6
DA:126,6
DA:127,6
DA:128,0
DA:129,6
DA:130,6
DA:131,6
DA:132,0
DA:133,6
DA:134,6
DA:135,6
DA:136,6
DA:138,6
DA:139,6
DA:140,0
DA:141,6
DA:142,6
DA:143,6
DA:144,0
DA:145,6
DA:146,6
DA:147,6
DA:148,0
DA:149,6
DA:151,9
DA:152,3
DA:153,0
DA:154,3
DA:157,12
DA:158,6
DA:159,0
DA:160,6
DA:163,6
DA:164,6
DA:166,1
DA:167,1
DA:168,0
DA:169,1
DA:170,1
DA:171,1
DA:172,0
DA:173,1
DA:174,1
DA:175,1
DA:176,0
DA:177,1
DA:178,1
DA:179,1
DA:180,1
DA:198,1
DA:199,1
DA:200,1
DA:201,1
DA:202,1
DA:205,1
DA:206,1
DA:207,1
DA:208,1
DA:209,1
DA:210,1
DA:211,0
DA:212,0
DA:213,1
DA:214,1
DA:215,1
DA:216,1
DA:217,1
DA:218,1
DA:219,1
DA:220,1
DA:221,1
DA:225,1
DA:226,2
DA:227,1
DA:228,1
DA:229,1
DA:233,1
DA:236,2
DA:237,1
DA:240,1
DA:241,1
DA:242,1
DA:244,1
DA:245,1
DA:246,1
DA:247,1
DA:248,1
DA:249,1
DA:251,1
DA:252,1
DA:253,1
DA:254,1
DA:255,1
DA:256,1
DA:257,1
DA:260,1
DA:263,1
DA:264,0
DA:265,0
DA:268,1
DA:269,0
DA:270,0
DA:273,1
DA:274,0
DA:275,0
DA:277,1
DA:278,1
DA:280,1
DA:281,1
DA:283,0
DA:284,0
DA:285,0
DA:289,1
DA:290,1
DA:291,1
DA:294,1
DA:296,1
DA:297,1
DA:299,1
DA:300,1
DA:302,1
DA:303,1
DA:305,1
DA:306,1
DA:308,1
DA:309,1
DA:310,1
DA:318,1
DA:319,1
DA:320,1
DA:321,1
DA:322,1
DA:323,1
DA:324,1
DA:325,1
DA:326,1
DA:327,1
DA:328,1
DA:329,1
DA:330,1
DA:331,1
DA:332,1
DA:335,1
DA:336,1
DA:337,1
DA:338,1
DA:339,1
DA:340,1
DA:341,1
DA:342,1
DA:343,1
DA:344,1
DA:345,1
DA:346,1
DA:347,1
DA:348,1
DA:349,1
DA:350,1
DA:351,1
DA:352,1
DA:353,1
DA:354,1
DA:355,1
DA:356,1
DA:357,1
DA:358,1
DA:359,1
DA:360,1
DA:361,1
DA:362,1
DA:363,1
DA:364,1
BRF:0
BRH:0
LF:257
LH:227
end_of_record
SF:/home/piotr/learning/knights/crates/oldtimes-core/src/economy.rs
FN:62,_RNCNvMNtCsiJMiApqKWrq_13oldtimes_core7economyNtB4_15EconomyAnalyzer24analyze_production_graphs0_0B6_
FN:70,_RNCNvMNtCsiJMiApqKWrq_13oldtimes_core7economyNtB4_15EconomyAnalyzer24analyze_production_graphs1_0B6_
FN:342,_RNvNtNtCsiJMiApqKWrq_13oldtimes_core7economy5testss_15test_flow_rates
FN:320,_RNvNtNtCsiJMiApqKWrq_13oldtimes_core7economy5testss_22test_production_ratios
FN:278,_RNvNtNtCsiJMiApqKWrq_13oldtimes_core7economy5testss_30test_production_graph_analysis
FN:214,_RNCNvMNtCsiJMiApqKWrq_13oldtimes_core7economyNtB4_15EconomyAnalyzer19dfs_cycle_detections0_0B6_
FN:165,_RNvMNtCsiJMiApqKWrq_13oldtimes_core7economyNtB2_15EconomyAnalyzer13detect_cycles
FN:187,_RNvMNtCsiJMiApqKWrq_13oldtimes_core7economyNtB2_15EconomyAnalyzer19dfs_cycle_detection
FN:80,_RNvMNtCsiJMiApqKWrq_13oldtimes_core7economyNtB2_15EconomyAnalyzer20calculate_flow_rates
FN:104,_RNvMNtCsiJMiApqKWrq_13oldtimes_core7economyNtB2_15EconomyAnalyzer22find_production_ratios
FN:17,_RNvMNtCsiJMiApqKWrq_13oldtimes_core7economyNtB2_15EconomyAnalyzer24analyze_production_graph
FN:117,_RNvMNtCsiJMiApqKWrq_13oldtimes_core7economyNtB2_15EconomyAnalyzer26calculate_ratios_recursive
FN:12,_RNvMNtCsiJMiApqKWrq_13oldtimes_core7economyNtB2_15EconomyAnalyzer3new
FN:256,_RNvMs_NtCsiJMiApqKWrq_13oldtimes_core7economyNtB4_23ProductionGraphAnalysis10has_cycles
FN:246,_RNvMs_NtCsiJMiApqKWrq_13oldtimes_core7economyNtB4_23ProductionGraphAnalysis3new
FN:262,_RNCNvMs_NtCsiJMiApqKWrq_13oldtimes_core7economyNtB6_23ProductionGraphAnalysis21is_resource_available0B8_
FN:260,_RNvMs_NtCsiJMiApqKWrq_13oldtimes_core7economyNtB4_23ProductionGraphAnalysis21is_resource_available
FN:207,_RNCNvMNtCsiJMiApqKWrq_13oldtimes_core7economyNtB4_15EconomyAnalyzer19dfs_cycle_detection0B6_
FN:208,_RNCNvMNtCsiJMiApqKWrq_13oldtimes_core7economyNtB4_15EconomyAnalyzer19dfs_cycle_detections_0B6_
FN:53,_RNCNvMNtCsiJMiApqKWrq_13oldtimes_core7economyNtB4_15EconomyAnalyzer24analyze_production_graph0B6_
FN:54,_RNCNvMNtCsiJMiApqKWrq_13oldtimes_core7economyNtB4_15EconomyAnalyzer24analyze_production_graphs_0B6_
FN:138,_RNCNvMNtCsiJMiApqKWrq_13oldtimes_core7economyNtB4_15EconomyAnalyzer26calculate_ratios_recursive0B6_
FNDA:7,_RNCNvMNtCsiJMiApqKWrq_13oldtimes_core7economyNtB4_15EconomyAnalyzer24analyze_production_graphs0_0B6_
FNDA:7,_RNCNvMNtCsiJMiApqKWrq_13oldtimes_core7economyNtB4_15EconomyAnalyzer24analyze_production_graphs1_0B6_
FNDA:1,_RNvNtNtCsiJMiApqKWrq_13oldtimes_core7economy5testss_15test_flow_rates
FNDA:1,_RNvNtNtCsiJMiApqKWrq_13oldtimes_core7economy5testss_22test_production_ratios
FNDA:1,_RNvNtNtCsiJMiApqKWrq_13oldtimes_core7economy5testss_30test_production_graph_analysis
FNDA:0,_RNCNvMNtCsiJMiApqKWrq_13oldtimes_core7economyNtB4_15EconomyAnalyzer19dfs_cycle_detections0_0B6_
FNDA:1,_RNvMNtCsiJMiApqKWrq_13oldtimes_core7economyNtB2_15EconomyAnalyzer13detect_cycles
FNDA:6,_RNvMNtCsiJMiApqKWrq_13oldtimes_core7economyNtB2_15EconomyAnalyzer19dfs_cycle_detection
FNDA:1,_RNvMNtCsiJMiApqKWrq_13oldtimes_core7economyNtB2_15EconomyAnalyzer20calculate_flow_rates
FNDA:1,_RNvMNtCsiJMiApqKWrq_13oldtimes_core7economyNtB2_15EconomyAnalyzer22find_production_ratios
FNDA:1,_RNvMNtCsiJMiApqKWrq_13oldtimes_core7economyNtB2_15EconomyAnalyzer24analyze_production_graph
FNDA:2,_RNvMNtCsiJMiApqKWrq_13oldtimes_core7economyNtB2_15EconomyAnalyzer26calculate_ratios_recursive
FNDA:3,_RNvMNtCsiJMiApqKWrq_13oldtimes_core7economyNtB2_15EconomyAnalyzer3new
FNDA:1,_RNvMs_NtCsiJMiApqKWrq_13oldtimes_core7economyNtB4_23ProductionGraphAnalysis10has_cycles
FNDA:1,_RNvMs_NtCsiJMiApqKWrq_13oldtimes_core7economyNtB4_23ProductionGraphAnalysis3new
FNDA:0,_RNCNvMs_NtCsiJMiApqKWrq_13oldtimes_core7economyNtB6_23ProductionGraphAnalysis21is_resource_available0B8_
FNDA:0,_RNvMs_NtCsiJMiApqKWrq_13oldtimes_core7economyNtB4_23ProductionGraphAnalysis21is_resource_available
FNDA:28,_RNCNvMNtCsiJMiApqKWrq_13oldtimes_core7economyNtB4_15EconomyAnalyzer19dfs_cycle_detection0B6_
FNDA:4,_RNCNvMNtCsiJMiApqKWrq_13oldtimes_core7economyNtB4_15EconomyAnalyzer19dfs_cycle_detections_0B6_
FNDA:7,_RNCNvMNtCsiJMiApqKWrq_13oldtimes_core7economyNtB4_15EconomyAnalyzer24analyze_production_graph0B6_
FNDA:3,_RNCNvMNtCsiJMiApqKWrq_13oldtimes_core7economyNtB4_15EconomyAnalyzer24analyze_production_graphs_0B6_
FNDA:12,_RNCNvMNtCsiJMiApqKWrq_13oldtimes_core7economyNtB4_15EconomyAnalyzer26calculate_ratios_recursive0B6_
FNF:22
FNH:19
DA:12,3
DA:13,3
DA:14,3
DA:17,1
DA:18,1
DA:19,1
DA:20,1
DA:21,1
DA:22,1
DA:24,8
DA:26,7
DA:27,7
DA:28,7
DA:29,7
DA:30,7
DA:31,7
DA:34,7
DA:35,4
DA:36,4
DA:37,4
DA:38,4
DA:39,4
DA:42,1
DA:43,1
DA:44,1
DA:45,1
DA:46,1
DA:47,1
DA:48,1
DA:49,1
DA:50,1
DA:51,1
DA:52,1
DA:53,7
DA:54,3
DA:55,1
DA:56,1
DA:57,1
DA:58,1
DA:59,1
DA:60,1
DA:61,1
DA:62,7
DA:63,1
DA:64,1
DA:65,1
DA:66,1
DA:67,1
DA:68,1
DA:69,1
DA:70,7
DA:71,1
DA:72,1
DA:73,1
DA:74,1
DA:75,1
DA:76,1
DA:77,1
DA:80,1
DA:81,1
DA:82,1
DA:83,1
DA:84,1
DA:86,2
DA:87,1
DA:89,2
DA:90,1
DA:91,1
DA:94,1
DA:95,0
DA:96,0
DA:97,0
DA:100,1
DA:101,1
DA:104,1
DA:105,1
DA:106,1
DA:107,1
DA:108,1
DA:109,1
DA:110,1
DA:111,1
DA:112,1
DA:114,1
DA:115,1
DA:117,2
DA:118,2
DA:119,2
DA:120,2
DA:121,2
DA:122,2
DA:123,2
DA:124,2
DA:125,0
DA:126,0
DA:127,0
DA:128,0
DA:129,2
DA:130,2
DA:131,2
DA:132,2
DA:133,2
DA:134,2
DA:135,2
DA:136,2
DA:137,2
DA:138,12
DA:139,2
DA:140,2
DA:141,2
DA:143,0
DA:144,2
DA:148,2
DA:149,2
DA:150,2
DA:151,2
DA:152,2
DA:155,3
DA:156,1
DA:157,1
DA:159,0
DA:161,2
DA:162,2
DA:163,2
DA:165,1
DA:166,1
DA:167,1
DA:168,1
DA:170,4
DA:171,4
DA:172,3
DA:173,3
DA:174,3
DA:175,3
DA:176,3
DA:177,3
DA:178,3
DA:179,3
DA:180,3
DA:181,3
DA:184,1
DA:185,1
DA:187,6
DA:188,6
DA:189,6
DA:190,6
DA:191,6
DA:192,6
DA:193,6
DA:194,6
DA:195,6
DA:196,6
DA:197,6
DA:198,6
DA:200,6
DA:201,8
DA:203,4
DA:204,4
DA:205,4
DA:206,4
DA:207,28
DA:208,4
DA:209,4
DA:211,8
DA:212,4
DA:213,0
DA:214,0
DA:215,0
DA:216,0
DA:217,4
DA:218,3
DA:219,3
DA:220,3
DA:221,3
DA:222,3
DA:223,3
DA:224,3
DA:225,3
DA:226,3
DA:229,2
DA:231,6
DA:232,6
DA:233,6
DA:246,1
DA:247,1
DA:248,1
DA:249,1
DA:250,1
DA:251,1
DA:252,1
DA:253,1
DA:254,1
DA:256,1
DA:257,1
DA:258,1
DA:260,0
DA:261,0
DA:262,0
DA:263,0
DA:264,0
DA:266,0
DA:268,0
DA:269,0
DA:278,1
DA:279,1
DA:280,1
DA:281,1
DA:282,1
DA:283,1
DA:284,1
DA:285,1
DA:286,1
DA:287,1
DA:288,1
DA:289,1
DA:290,1
DA:291,1
DA:292,1
DA:293,1
DA:294,1
DA:295,1
DA:296,1
DA:297,1
DA:298,1
DA:299,1
DA:300,1
DA:301,1
DA:302,1
DA:303,1
DA:304,1
DA:305,1
DA:306,1
DA:307,1
DA:308,1
DA:309,1
DA:312,1
DA:313,1
DA:316,1
DA:317,1
DA:320,1
DA:321,1
DA:322,1
DA:323,1
DA:324,1
DA:325,1
DA:326,1
DA:327,1
DA:328,1
DA:329,1
DA:330,1
DA:331,1
DA:332,1
DA:333,1
DA:334,1
DA:335,1
DA:336,1
DA:337,1
DA:338,1
DA:339,1
DA:342,1
DA:343,1
DA:344,1
DA:345,1
DA:346,1
DA:347,1
DA:348,1
DA:349,1
DA:350,1
DA:351,1
DA:352,1
DA:353,1
BRF:0
BRH:0
LF:281
LH:257
end_of_record
SF:/home/piotr/learning/knights/crates/oldtimes-core/src/map.rs
FN:150,_RNvNtNtCsiJMiApqKWrq_13oldtimes_core3map5testss_24test_demo_map_generation
FN:185,_RNvNtNtCsiJMiApqKWrq_13oldtimes_core3map5testss_25test_building_suitability
FN:220,_RNvNtNtCsiJMiApqKWrq_13oldtimes_core3map5testss_28test_config_based_generation
FN:46,_RNvNtCsiJMiApqKWrq_13oldtimes_core3map14add_demo_roads
FN:8,_RNvNtCsiJMiApqKWrq_13oldtimes_core3map17generate_demo_map
FN:85,_RNvNtCsiJMiApqKWrq_13oldtimes_core3map24generate_map_from_config
FN:128,_RNvNtCsiJMiApqKWrq_13oldtimes_core3map24is_suitable_for_building
FNDA:1,_RNvNtNtCsiJMiApqKWrq_13oldtimes_core3map5testss_24test_demo_map_generation
FNDA:1,_RNvNtNtCsiJMiApqKWrq_13oldtimes_core3map5testss_25test_building_suitability
FNDA:1,_RNvNtNtCsiJMiApqKWrq_13oldtimes_core3map5testss_28test_config_based_generation
FNDA:5,_RNvNtCsiJMiApqKWrq_13oldtimes_core3map14add_demo_roads
FNDA:5,_RNvNtCsiJMiApqKWrq_13oldtimes_core3map17generate_demo_map
FNDA:1,_RNvNtCsiJMiApqKWrq_13oldtimes_core3map24generate_map_from_config
FNDA:2,_RNvNtCsiJMiApqKWrq_13oldtimes_core3map24is_suitable_for_building
FNF:7
FNH:7
DA:8,5
DA:9,5
DA:11,288
DA:12,17408
DA:13,17408
DA:14,17408
DA:15,17408
DA:16,17408
DA:17,17408
DA:18,17408
DA:19,17408
DA:21,17408
DA:22,4849
DA:23,12559
DA:24,2271
DA:25,10288
DA:26,3124
DA:28,7164
DA:31,17408
DA:32,17408
DA:33,17408
DA:34,17408
DA:35,17408
DA:36,17408
DA:41,5
DA:42,5
DA:43,5
DA:44,5
DA:46,5
DA:50,205
DA:51,200
DA:52,182
DA:53,111
DA:54,111
DA:55,111
DA:56,111
DA:57,111
DA:58,111
DA:59,111
DA:60,111
DA:61,111
DA:62,18
DA:66,205
DA:67,200
DA:68,182
DA:69,61
DA:70,61
DA:71,61
DA:72,61
DA:73,61
DA:74,61
DA:75,61
DA:76,61
DA:77,121
DA:78,18
DA:81,5
DA:82,5
DA:85,1
DA:86,1
DA:87,1
DA:88,1
DA:90,16
DA:91,256
DA:92,256
DA:93,256
DA:94,256
DA:95,256
DA:96,256
DA:97,256
DA:99,256
DA:100,63
DA:101,193
DA:102,25
DA:103,168
DA:104,37
DA:106,131
DA:109,256
DA:110,256
DA:111,256
DA:112,256
DA:113,256
DA:114,256
DA:118,1
DA:119,0
DA:124,1
DA:125,1
DA:128,2
DA:129,4
DA:130,8
DA:131,8
DA:132,8
DA:133,1
DA:134,0
DA:135,7
DA:138,0
DA:142,1
DA:143,2
DA:150,1
DA:151,1
DA:152,1
DA:153,1
DA:154,1
DA:155,1
DA:156,1
DA:157,1
DA:158,1
DA:159,1
DA:161,32
DA:162,1024
DA:163,1024
DA:164,1024
DA:165,388
DA:166,293
DA:167,200
DA:168,135
DA:169,8
DA:171,0
DA:176,1
DA:177,1
DA:180,1
DA:181,1
DA:182,1
DA:185,1
DA:186,1
DA:189,11
DA:190,110
DA:191,100
DA:192,100
DA:193,100
DA:194,100
DA:195,100
DA:196,100
DA:197,100
DA:198,100
DA:199,100
DA:203,1
DA:206,1
DA:207,1
DA:208,1
DA:209,1
DA:210,1
DA:211,1
DA:212,1
DA:213,1
DA:214,1
DA:215,1
DA:216,1
DA:217,1
DA:220,1
DA:221,1
DA:222,1
DA:223,1
DA:224,1
DA:225,1
DA:226,1
DA:227,1
DA:228,1
DA:229,1
DA:230,1
DA:231,1
DA:232,1
DA:233,1
BRF:0
BRH:0
LF:162
LH:158
end_of_record
SF:/home/piotr/learning/knights/crates/oldtimes-core/src/resources.rs
FN:47,_RNvMs0_NtCsiJMiApqKWrq_13oldtimes_core9resourcesNtB5_7MapData3new
FN:66,_RNvMs0_NtCsiJMiApqKWrq_13oldtimes_core9resourcesNtB5_7MapData8get_tile
FN:74,_RNvMs0_NtCsiJMiApqKWrq_13oldtimes_core9resourcesNtB5_7MapData8set_tile
FN:113,_RNvMs1_NtCsiJMiApqKWrq_13oldtimes_core9resourcesNtB5_16PathfindingCache3get
FN:104,_RNvMs1_NtCsiJMiApqKWrq_13oldtimes_core9resourcesNtB5_16PathfindingCache3new
FN:142,_RNvMs1_NtCsiJMiApqKWrq_13oldtimes_core9resourcesNtB5_16PathfindingCache5clear
FN:127,_RNvMs1_NtCsiJMiApqKWrq_13oldtimes_core9resourcesNtB5_16PathfindingCache6insert
FN:166,_RNvMs2_NtCsiJMiApqKWrq_13oldtimes_core9resourcesNtB5_18PerformanceMetrics18record_system_time
FN:33,_RNvMs_NtCsiJMiApqKWrq_13oldtimes_core9resourcesNtB4_8GameTick10delta_time
FN:29,_RNvMs_NtCsiJMiApqKWrq_13oldtimes_core9resourcesNtB4_8GameTick4tick
FN:13,_RNvXNtCsiJMiApqKWrq_13oldtimes_core9resourcesNtB2_8GameTickNtNtCs649FzoMgw5V_4core7default7Default7default
FN:221,_RNvXs3_NtCsiJMiApqKWrq_13oldtimes_core9resourcesNtB5_10GameConfigNtNtCs649FzoMgw5V_4core7default7Default7default
FN:86,_RNvMs0_NtCsiJMiApqKWrq_13oldtimes_core9resourcesNtB5_7MapData17is_valid_position
FN:146,_RNvMs1_NtCsiJMiApqKWrq_13oldtimes_core9resourcesNtB5_16PathfindingCache8hit_rate
FN:170,_RNvMs2_NtCsiJMiApqKWrq_13oldtimes_core9resourcesNtB5_18PerformanceMetrics21get_total_system_time
FN:22,_RNvMs_NtCsiJMiApqKWrq_13oldtimes_core9resourcesNtB4_8GameTick3new
FN:51,_RNCNCNvMs0_NtCsiJMiApqKWrq_13oldtimes_core9resourcesNtB9_7MapData3new00Bb_
FN:49,_RNCNvMs0_NtCsiJMiApqKWrq_13oldtimes_core9resourcesNtB7_7MapData3new0B9_
FNDA:10,_RNvMs0_NtCsiJMiApqKWrq_13oldtimes_core9resourcesNtB5_7MapData3new
FNDA:2792,_RNvMs0_NtCsiJMiApqKWrq_13oldtimes_core9resourcesNtB5_7MapData8get_tile
FNDA:17945,_RNvMs0_NtCsiJMiApqKWrq_13oldtimes_core9resourcesNtB5_7MapData8set_tile
FNDA:4,_RNvMs1_NtCsiJMiApqKWrq_13oldtimes_core9resourcesNtB5_16PathfindingCache3get
FNDA:3,_RNvMs1_NtCsiJMiApqKWrq_13oldtimes_core9resourcesNtB5_16PathfindingCache3new
FNDA:0,_RNvMs1_NtCsiJMiApqKWrq_13oldtimes_core9resourcesNtB5_16PathfindingCache5clear
FNDA:3,_RNvMs1_NtCsiJMiApqKWrq_13oldtimes_core9resourcesNtB5_16PathfindingCache6insert
FNDA:0,_RNvMs2_NtCsiJMiApqKWrq_13oldtimes_core9resourcesNtB5_18PerformanceMetrics18record_system_time
FNDA:808,_RNvMs_NtCsiJMiApqKWrq_13oldtimes_core9resourcesNtB4_8GameTick10delta_time
FNDA:202,_RNvMs_NtCsiJMiApqKWrq_13oldtimes_core9resourcesNtB4_8GameTick4tick
FNDA:6,_RNvXNtCsiJMiApqKWrq_13oldtimes_core9resourcesNtB2_8GameTickNtNtCs649FzoMgw5V_4core7default7Default7default
FNDA:9,_RNvXs3_NtCsiJMiApqKWrq_13oldtimes_core9resourcesNtB5_10GameConfigNtNtCs649FzoMgw5V_4core7default7Default7default
FNDA:0,_RNvMs0_NtCsiJMiApqKWrq_13oldtimes_core9resourcesNtB5_7MapData17is_valid_position
FNDA:0,_RNvMs1_NtCsiJMiApqKWrq_13oldtimes_core9resourcesNtB5_16PathfindingCache8hit_rate
FNDA:0,_RNvMs2_NtCsiJMiApqKWrq_13oldtimes_core9resourcesNtB5_18PerformanceMetrics21get_total_system_time
FNDA:0,_RNvMs_NtCsiJMiApqKWrq_13oldtimes_core9resourcesNtB4_8GameTick3new
FNDA:18064,_RNCNCNvMs0_NtCsiJMiApqKWrq_13oldtimes_core9resourcesNtB9_7MapData3new00Bb_
FNDA:344,_RNCNvMs0_NtCsiJMiApqKWrq_13oldtimes_core9resourcesNtB7_7MapData3new0B9_
FNF:18
FNH:12
DA:13,6
DA:14,6
DA:15,6
DA:16,6
DA:17,6
DA:18,6
DA:22,0
DA:23,0
DA:24,0
DA:25,0
DA:26,0
DA:27,0
DA:29,202
DA:30,202
DA:31,202
DA:33,808
DA:34,808
DA:35,808
DA:47,10
DA:48,10
DA:49,344
DA:50,344
DA:51,18064
DA:52,18064
DA:53,18064
DA:54,18064
DA:55,344
DA:56,344
DA:57,10
DA:58,10
DA:59,10
DA:60,10
DA:61,10
DA:62,10
DA:63,10
DA:64,10
DA:66,2792
DA:67,2792
DA:68,2567
DA:70,225
DA:72,2792
DA:74,17945
DA:75,17945
DA:76,17945
DA:77,17945
DA:78,17945
DA:79,17945
DA:80,0
DA:81,0
DA:82,0
DA:83,0
DA:84,17945
DA:86,0
DA:87,0
DA:88,0
DA:104,3
DA:105,3
DA:106,3
DA:107,3
DA:108,3
DA:109,3
DA:110,3
DA:111,3
DA:113,4
DA:114,4
DA:115,4
DA:116,4
DA:117,4
DA:118,4
DA:119,1
DA:120,1
DA:122,3
DA:123,3
DA:125,4
DA:127,3
DA:128,3
DA:129,3
DA:130,3
DA:131,3
DA:132,3
DA:133,3
DA:135,0
DA:136,0
DA:137,0
DA:138,3
DA:139,3
DA:140,3
DA:142,0
DA:143,0
DA:144,0
DA:146,0
DA:147,0
DA:148,0
DA:149,0
DA:151,0
DA:153,0
DA:166,0
DA:167,0
DA:168,0
DA:170,0
DA:171,0
DA:172,0
DA:221,9
DA:222,9
DA:223,9
DA:224,9
DA:225,9
DA:226,9
DA:227,9
DA:228,9
DA:229,9
DA:230,9
DA:231,9
DA:232,9
DA:233,9
DA:234,9
DA:235,9
DA:236,9
DA:237,9
DA:238,9
DA:239,9
DA:240,9
DA:241,9
DA:242,9
DA:243,9
DA:244,9
DA:245,9
DA:246,9
DA:247,9
DA:248,9
DA:249,9
DA:250,9
DA:251,9
DA:252,9
DA:253,9
DA:254,9
DA:255,9
DA:256,9
DA:257,9
DA:258,9
DA:259,9
DA:260,9
DA:261,9
DA:262,9
DA:263,9
DA:264,9
DA:265,9
DA:266,9
DA:267,9
DA:268,9
DA:269,9
DA:270,9
DA:271,9
DA:272,9
DA:273,9
DA:274,9
DA:275,9
DA:276,9
DA:277,9
DA:278,9
DA:279,9
DA:280,9
DA:281,9
DA:282,9
DA:283,9
DA:284,9
DA:285,9
DA:286,9
DA:287,9
DA:288,9
DA:289,9
DA:290,9
DA:291,9
DA:292,9
DA:293,9
DA:294,9
DA:295,9
DA:296,9
DA:297,9
DA:298,9
DA:299,9
DA:300,9
DA:301,9
DA:302,9
DA:303,9
DA:304,9
DA:305,9
DA:306,9
DA:307,9
DA:308,9
DA:309,9
DA:310,9
DA:311,9
DA:312,9
DA:313,9
DA:314,9
DA:315,9
DA:316,9
DA:317,9
DA:318,9
DA:319,9
DA:320,9
DA:321,9
DA:322,9
DA:323,9
DA:324,9
DA:325,9
DA:326,9
DA:327,9
DA:328,9
DA:329,9
DA:330,9
DA:331,9
DA:332,9
DA:333,9
DA:334,9
DA:335,9
DA:336,9
DA:337,9
DA:338,9
DA:339,9
DA:340,9
DA:341,9
DA:342,9
DA:343,9
DA:344,9
DA:345,9
DA:346,9
DA:347,9
DA:348,9
DA:349,9
DA:350,9
DA:351,9
DA:352,9
DA:353,9
DA:354,9
DA:355,9
DA:356,9
DA:357,9
DA:358,9
DA:359,9
DA:360,9
DA:361,9
DA:362,9
DA:363,9
DA:364,9
DA:365,9
DA:366,9
DA:367,9
DA:368,9
DA:369,9
DA:370,9
DA:371,9
DA:372,9
DA:373,9
DA:374,9
DA:375,9
DA:376,9
DA:377,9
DA:378,9
DA:379,9
DA:380,9
DA:381,9
DA:382,9
DA:383,9
DA:384,9
DA:385,9
DA:386,9
DA:387,9
DA:388,9
DA:389,9
BRF:0
BRH:0
LF:275
LH:244
end_of_record
SF:/home/piotr/learning/knights/crates/oldtimes-core/src/save.rs
FN:230,_RNCNvNtCsiJMiApqKWrq_13oldtimes_core4save22load_and_verify_replay0B5_
FN:156,_RNvNtCsiJMiApqKWrq_13oldtimes_core4save15start_recording
FN:194,_RNvNtCsiJMiApqKWrq_13oldtimes_core4save22load_and_verify_replay
FN:288,_RNvNtNtCsiJMiApqKWrq_13oldtimes_core4save5testss_21test_replay_recording
FN:255,_RNvNtNtCsiJMiApqKWrq_13oldtimes_core4save5testss_25test_save_load_game_state
FN:178,_RNvMNtCsiJMiApqKWrq_13oldtimes_core4saveNtB2_14ReplayRecorder11save_replay
FN:173,_RNvMNtCsiJMiApqKWrq_13oldtimes_core4saveNtB2_14ReplayRecorder12record_event
FN:166,_RNvMNtCsiJMiApqKWrq_13oldtimes_core4saveNtB2_14ReplayRecorder3new
FN:88,_RNvNtCsiJMiApqKWrq_13oldtimes_core4save15load_game_state
FN:35,_RNvNtCsiJMiApqKWrq_13oldtimes_core4save15save_game_state
FNDA:0,_RNCNvNtCsiJMiApqKWrq_13oldtimes_core4save22load_and_verify_replay0B5_
FNDA:0,_RNvNtCsiJMiApqKWrq_13oldtimes_core4save15start_recording
FNDA:0,_RNvNtCsiJMiApqKWrq_13oldtimes_core4save22load_and_verify_replay
FNDA:1,_RNvNtNtCsiJMiApqKWrq_13oldtimes_core4save5testss_21test_replay_recording
FNDA:1,_RNvNtNtCsiJMiApqKWrq_13oldtimes_core4save5testss_25test_save_load_game_state
FNDA:1,_RNvMNtCsiJMiApqKWrq_13oldtimes_core4saveNtB2_14ReplayRecorder11save_replay
FNDA:1,_RNvMNtCsiJMiApqKWrq_13oldtimes_core4saveNtB2_14ReplayRecorder12record_event
FNDA:1,_RNvMNtCsiJMiApqKWrq_13oldtimes_core4saveNtB2_14ReplayRecorder3new
FNDA:1,_RNvNtCsiJMiApqKWrq_13oldtimes_core4save15load_game_state
FNDA:1,_RNvNtCsiJMiApqKWrq_13oldtimes_core4save15save_game_state
FNF:10
FNH:7
DA:35,1
DA:36,1
DA:37,1
DA:38,1
DA:39,1
DA:40,1
DA:41,1
DA:42,1
DA:43,1
DA:44,1
DA:45,1
DA:46,1
DA:47,1
DA:48,1
DA:49,1
DA:50,1
DA:51,1
DA:52,1
DA:54,1
DA:55,1
DA:56,1
DA:57,1
DA:58,1
DA:59,1
DA:60,1
DA:61,1
DA:62,1
DA:63,1
DA:64,1
DA:65,1
DA:66,1
DA:67,1
DA:68,1
DA:69,1
DA:70,1
DA:71,1
DA:73,1
DA:74,1
DA:75,1
DA:76,1
DA:77,1
DA:78,1
DA:80,1
DA:81,1
DA:83,1
DA:84,1
DA:85,1
DA:88,1
DA:89,1
DA:90,1
DA:93,1
DA:96,1
DA:97,1
DA:98,1
DA:101,1
DA:104,2
DA:105,1
DA:106,1
DA:107,1
DA:108,1
DA:110,1
DA:111,1
DA:112,1
DA:114,1
DA:115,1
DA:116,1
DA:118,1
DA:119,0
DA:120,1
DA:122,1
DA:123,0
DA:124,1
DA:126,1
DA:127,0
DA:128,1
DA:130,1
DA:131,0
DA:132,1
DA:134,1
DA:135,0
DA:136,1
DA:138,1
DA:139,0
DA:140,1
DA:143,1
DA:144,1
DA:145,1
DA:156,0
DA:157,0
DA:158,0
DA:166,1
DA:167,1
DA:168,1
DA:169,1
DA:170,1
DA:171,1
DA:173,1
DA:174,1
DA:175,1
DA:176,1
DA:178,1
DA:179,1
DA:180,1
DA:181,1
DA:182,1
DA:183,1
DA:185,1
DA:186,1
DA:188,1
DA:189,1
DA:190,1
DA:194,0
DA:195,0
DA:196,0
DA:199,0
DA:200,0
DA:201,0
DA:202,0
DA:203,0
DA:206,0
DA:208,0
DA:209,0
DA:210,0
DA:213,0
DA:214,0
DA:215,0
DA:216,0
DA:217,0
DA:218,0
DA:219,0
DA:220,0
DA:221,0
DA:222,0
DA:223,0
DA:224,0
DA:225,0
DA:230,0
DA:231,0
DA:232,0
DA:233,0
DA:234,0
DA:235,0
DA:236,0
DA:237,0
DA:238,0
DA:239,0
DA:240,0
DA:242,0
DA:243,0
DA:246,0
DA:247,0
DA:255,1
DA:256,1
DA:257,1
DA:258,1
DA:259,1
DA:260,1
DA:261,1
DA:262,1
DA:263,1
DA:264,1
DA:265,1
DA:266,1
DA:267,1
DA:268,1
DA:269,1
DA:270,1
DA:271,1
DA:272,1
DA:273,1
DA:274,1
DA:275,1
DA:276,1
DA:277,1
DA:278,1
DA:279,1
DA:280,1
DA:281,1
DA:282,1
DA:283,1
DA:284,1
DA:285,1
DA:288,1
DA:289,1
DA:290,1
DA:291,1
DA:292,1
DA:293,1
DA:294,1
DA:295,1
DA:296,1
DA:297,1
DA:298,1
DA:299,1
DA:302,1
DA:303,1
DA:304,1
DA:305,1
DA:306,1
DA:307,1
DA:308,1
DA:309,1
DA:310,1
BRF:0
BRH:0
LF:204
LH:154
end_of_record
SF:/home/piotr/learning/knights/crates/oldtimes-core/src/simulation.rs
FN:190,_RNvNtNtCsiJMiApqKWrq_13oldtimes_core10simulation5testss_23test_building_placement
FN:163,_RNvNtNtCsiJMiApqKWrq_13oldtimes_core10simulation5testss_24test_simulation_creation
FN:174,_RNvNtNtCsiJMiApqKWrq_13oldtimes_core10simulation5testss_29test_deterministic_simulation
FN:94,_RNvMNtCsiJMiApqKWrq_13oldtimes_core10simulationNtB2_13SimulationApp12current_tick
FN:72,_RNvMNtCsiJMiApqKWrq_13oldtimes_core10simulationNtB2_13SimulationApp15initialize_demo
FN:119,_RNvMNtCsiJMiApqKWrq_13oldtimes_core10simulationNtB2_13SimulationApp20calculate_state_hash
FN:10,_RNvMNtCsiJMiApqKWrq_13oldtimes_core10simulationNtB2_13SimulationApp3new
FN:82,_RNvMNtCsiJMiApqKWrq_13oldtimes_core10simulationNtB2_13SimulationApp4tick
FN:87,_RNvMNtCsiJMiApqKWrq_13oldtimes_core10simulationNtB2_13SimulationApp9run_ticks
FN:109,_RINvMNtCsiJMiApqKWrq_13oldtimes_core10simulationNtB3_13SimulationApp12get_resourcepEB5_
FN:114,_RINvMNtCsiJMiApqKWrq_13oldtimes_core10simulationNtB3_13SimulationApp16get_resource_mutpEB5_
FN:147,_RNvMNtCsiJMiApqKWrq_13oldtimes_core10simulationNtB2_13SimulationApp10load_state
FN:142,_RNvMNtCsiJMiApqKWrq_13oldtimes_core10simulationNtB2_13SimulationApp10save_state
FN:99,_RNvMNtCsiJMiApqKWrq_13oldtimes_core10simulationNtB2_13SimulationApp11get_metrics
FN:153,_RNvXs_NtCsiJMiApqKWrq_13oldtimes_core10simulationNtB4_13SimulationAppNtNtCs649FzoMgw5V_4core7default7Default7default
FN:104,_RINvMNtCsiJMiApqKWrq_13oldtimes_core10simulationNtB3_13SimulationApp10send_eventNtNtB5_6events18PlaceBuildingEventEB5_
FNDA:1,_RNvNtNtCsiJMiApqKWrq_13oldtimes_core10simulation5testss_23test_building_placement
FNDA:1,_RNvNtNtCsiJMiApqKWrq_13oldtimes_core10simulation5testss_24test_simulation_creation
FNDA:1,_RNvNtNtCsiJMiApqKWrq_13oldtimes_core10simulation5testss_29test_deterministic_simulation
FNDA:3,_RNvMNtCsiJMiApqKWrq_13oldtimes_core10simulationNtB2_13SimulationApp12current_tick
FNDA:4,_RNvMNtCsiJMiApqKWrq_13oldtimes_core10simulationNtB2_13SimulationApp15initialize_demo
FNDA:2,_RNvMNtCsiJMiApqKWrq_13oldtimes_core10simulationNtB2_13SimulationApp20calculate_state_hash
FNDA:4,_RNvMNtCsiJMiApqKWrq_13oldtimes_core10simulationNtB2_13SimulationApp3new
FNDA:202,_RNvMNtCsiJMiApqKWrq_13oldtimes_core10simulationNtB2_13SimulationApp4tick
FNDA:2,_RNvMNtCsiJMiApqKWrq_13oldtimes_core10simulationNtB2_13SimulationApp9run_ticks
FNDA:0,_RINvMNtCsiJMiApqKWrq_13oldtimes_core10simulationNtB3_13SimulationApp12get_resourcepEB5_
FNDA:0,_RINvMNtCsiJMiApqKWrq_13oldtimes_core10simulationNtB3_13SimulationApp16get_resource_mutpEB5_
FNDA:0,_RNvMNtCsiJMiApqKWrq_13oldtimes_core10simulationNtB2_13SimulationApp10load_state
FNDA:0,_RNvMNtCsiJMiApqKWrq_13oldtimes_core10simulationNtB2_13SimulationApp10save_state
FNDA:0,_RNvMNtCsiJMiApqKWrq_13oldtimes_core10simulationNtB2_13SimulationApp11get_metrics
FNDA:0,_RNvXs_NtCsiJMiApqKWrq_13oldtimes_core10simulationNtB4_13SimulationAppNtNtCs649FzoMgw5V_4core7default7Default7default
FNDA:1,_RINvMNtCsiJMiApqKWrq_13oldtimes_core10simulationNtB3_13SimulationApp10send_eventNtNtB5_6events18PlaceBuildingEventEB5_
FNF:16
FNH:10
DA:10,4
DA:11,4
DA:12,4
DA:13,4
DA:14,4
DA:15,4
DA:16,4
DA:17,4
DA:18,4
DA:19,4
DA:20,4
DA:21,4
DA:22,4
DA:23,4
DA:24,4
DA:25,4
DA:26,4
DA:27,4
DA:28,4
DA:29,4
DA:30,4
DA:31,4
DA:32,4
DA:33,4
DA:34,4
DA:35,4
DA:36,4
DA:37,4
DA:38,4
DA:39,4
DA:40,4
DA:41,4
DA:42,4
DA:43,4
DA:44,4
DA:45,4
DA:46,4
DA:47,4
DA:48,4
DA:49,4
DA:50,4
DA:51,4
DA:52,4
DA:53,4
DA:54,4
DA:55,4
DA:56,4
DA:57,4
DA:58,4
DA:59,4
DA:60,4
DA:61,4
DA:62,4
DA:63,4
DA:64,4
DA:65,4
DA:66,4
DA:67,4
DA:68,4
DA:69,4
DA:72,4
DA:73,4
DA:74,4
DA:75,4
DA:76,4
DA:77,4
DA:78,4
DA:79,4
DA:82,202
DA:83,202
DA:84,202
DA:87,2
DA:88,200
DA:89,200
DA:90,200
DA:91,2
DA:94,3
DA:95,3
DA:96,3
DA:99,0
DA:100,0
DA:101,0
DA:104,1
DA:105,1
DA:106,1
DA:109,0
DA:110,0
DA:111,0
DA:114,0
DA:115,0
DA:116,0
DA:119,2
DA:123,2
DA:124,2
DA:125,2
DA:126,2
DA:127,2
DA:128,2
DA:129,2
DA:130,2
DA:131,2
DA:132,2
DA:133,2
DA:134,2
DA:135,2
DA:136,2
DA:137,2
DA:138,2
DA:139,2
DA:142,0
DA:143,0
DA:144,0
DA:147,0
DA:148,0
DA:149,0
DA:153,0
DA:154,0
DA:155,0
DA:163,1
DA:164,1
DA:165,1
DA:166,1
DA:167,1
DA:169,1
DA:170,1
DA:171,1
DA:174,1
DA:175,1
DA:176,1
DA:177,1
DA:178,1
DA:179,1
DA:180,1
DA:181,1
DA:182,1
DA:183,1
DA:184,1
DA:185,1
DA:186,1
DA:187,1
DA:190,1
DA:191,1
DA:192,1
DA:193,1
DA:194,1
DA:195,1
DA:196,1
DA:197,1
DA:198,1
DA:199,1
DA:200,1
DA:201,1
DA:202,1
DA:203,1
DA:204,1
BRF:0
BRH:0
LF:155
LH:137
end_of_record
SF:/home/piotr/learning/knights/crates/oldtimes-core/src/systems/construction.rs
FN:118,_RNvNtNtNtCsiJMiApqKWrq_13oldtimes_core7systems12construction5testss_24test_position_occupation
FN:48,_RNvNtNtCsiJMiApqKWrq_13oldtimes_core7systems12construction19construction_system
FN:89,_RNvNtNtCsiJMiApqKWrq_13oldtimes_core7systems12construction20is_position_occupied
FN:9,_RNvNtNtCsiJMiApqKWrq_13oldtimes_core7systems12construction25building_placement_system
FNDA:1,_RNvNtNtNtCsiJMiApqKWrq_13oldtimes_core7systems12construction5testss_24test_position_occupation
FNDA:202,_RNvNtNtCsiJMiApqKWrq_13oldtimes_core7systems12construction19construction_system
FNDA:1,_RNvNtNtCsiJMiApqKWrq_13oldtimes_core7systems12construction20is_position_occupied
FNDA:202,_RNvNtNtCsiJMiApqKWrq_13oldtimes_core7systems12construction25building_placement_system
FNF:4
FNH:4
DA:9,202
DA:10,202
DA:11,202
DA:12,202
DA:13,202
DA:14,202
DA:15,202
DA:16,1
DA:17,1
DA:19,0
DA:20,0
DA:25,1
DA:26,0
DA:27,0
DA:30,0
DA:31,1
DA:32,1
DA:33,1
DA:34,1
DA:35,1
DA:36,1
DA:37,1
DA:38,1
DA:39,1
DA:40,1
DA:41,1
DA:42,1
DA:43,1
DA:45,202
DA:48,202
DA:49,202
DA:50,202
DA:51,202
DA:52,202
DA:53,202
DA:54,202
DA:56,202
DA:57,1
DA:58,0
DA:59,1
DA:61,1
DA:62,1
DA:63,0
DA:68,1
DA:69,1
DA:70,1
DA:71,0
DA:72,0
DA:73,0
DA:74,0
DA:75,0
DA:76,0
DA:77,0
DA:78,0
DA:79,0
DA:80,0
DA:81,0
DA:85,1
DA:87,202
DA:89,1
DA:90,1
DA:91,1
DA:92,1
DA:93,1
DA:95,1
DA:97,0
DA:98,0
DA:99,0
DA:100,0
DA:101,0
DA:102,0
DA:103,0
DA:104,0
DA:105,0
DA:106,0
DA:107,0
DA:110,1
DA:111,1
DA:118,1
DA:119,1
DA:120,1
DA:121,1
DA:122,1
DA:123,1
DA:124,1
DA:125,1
DA:126,1
DA:127,1
DA:128,1
DA:129,1
DA:130,1
BRF:0
BRH:0
LF:91
LH:62
end_of_record
SF:/home/piotr/learning/knights/crates/oldtimes-core/src/systems/pathfinding.rs
FN:92,_RNvNtNtCsiJMiApqKWrq_13oldtimes_core7systems11pathfinding13get_neighbors
FN:31,_RNvNtNtCsiJMiApqKWrq_13oldtimes_core7systems11pathfinding15movement_system
FN:11,_RNvNtNtCsiJMiApqKWrq_13oldtimes_core7systems11pathfinding18pathfinding_system
FN:56,_RNvNtNtCsiJMiApqKWrq_13oldtimes_core7systems11pathfinding35invalidate_pathfinding_cache_system
FN:66,_RNvNtNtCsiJMiApqKWrq_13oldtimes_core7systems11pathfinding9find_path
FN:167,_RNvNtNtNtCsiJMiApqKWrq_13oldtimes_core7systems11pathfinding5testss_22test_pathfinding_cache
FN:123,_RNvNtNtNtCsiJMiApqKWrq_13oldtimes_core7systems11pathfinding5testss_23test_pathfinding_simple
FN:139,_RNvNtNtNtCsiJMiApqKWrq_13oldtimes_core7systems11pathfinding5testss_31test_pathfinding_with_obstacles
FN:79,_RNCNvNtNtCsiJMiApqKWrq_13oldtimes_core7systems11pathfinding9find_path0B7_
FN:81,_RNCNvNtNtCsiJMiApqKWrq_13oldtimes_core7systems11pathfinding9find_paths0_0B7_
FN:80,_RNCNvNtNtCsiJMiApqKWrq_13oldtimes_core7systems11pathfinding9find_paths_0B7_
FNDA:170,_RNvNtNtCsiJMiApqKWrq_13oldtimes_core7systems11pathfinding13get_neighbors
FNDA:202,_RNvNtNtCsiJMiApqKWrq_13oldtimes_core7systems11pathfinding15movement_system
FNDA:202,_RNvNtNtCsiJMiApqKWrq_13oldtimes_core7systems11pathfinding18pathfinding_system
FNDA:202,_RNvNtNtCsiJMiApqKWrq_13oldtimes_core7systems11pathfinding35invalidate_pathfinding_cache_system
FNDA:4,_RNvNtNtCsiJMiApqKWrq_13oldtimes_core7systems11pathfinding9find_path
FNDA:1,_RNvNtNtNtCsiJMiApqKWrq_13oldtimes_core7systems11pathfinding5testss_22test_pathfinding_cache
FNDA:1,_RNvNtNtNtCsiJMiApqKWrq_13oldtimes_core7systems11pathfinding5testss_23test_pathfinding_simple
FNDA:1,_RNvNtNtNtCsiJMiApqKWrq_13oldtimes_core7systems11pathfinding5testss_31test_pathfinding_with_obstacles
FNDA:170,_RNCNvNtNtCsiJMiApqKWrq_13oldtimes_core7systems11pathfinding9find_path0B7_
FNDA:173,_RNCNvNtNtCsiJMiApqKWrq_13oldtimes_core7systems11pathfinding9find_paths0_0B7_
FNDA:201,_RNCNvNtNtCsiJMiApqKWrq_13oldtimes_core7systems11pathfinding9find_paths_0B7_
FNF:11
FNH:11
DA:11,202
DA:12,202
DA:13,202
DA:14,202
DA:15,202
DA:16,202
DA:17,202
DA:18,0
DA:20,0
DA:21,0
DA:22,0
DA:23,0
DA:24,0
DA:25,0
DA:28,202
DA:31,202
DA:32,202
DA:33,202
DA:34,202
DA:35,202
DA:37,202
DA:38,0
DA:39,0
DA:40,0
DA:42,0
DA:45,0
DA:46,0
DA:47,0
DA:48,0
DA:49,0
DA:50,0
DA:51,0
DA:53,202
DA:56,202
DA:57,202
DA:58,202
DA:59,202
DA:60,202
DA:61,0
DA:62,0
DA:64,202
DA:66,4
DA:67,4
DA:68,4
DA:69,4
DA:70,4
DA:71,4
DA:73,4
DA:74,1
DA:75,3
DA:76,3
DA:77,3
DA:78,3
DA:79,170
DA:80,201
DA:81,173
DA:82,3
DA:84,3
DA:85,3
DA:86,3
DA:88,0
DA:90,4
DA:92,170
DA:93,170
DA:95,680
DA:96,2040
DA:97,1530
DA:98,170
DA:99,1360
DA:100,1360
DA:101,1360
DA:103,1360
DA:104,1171
DA:105,1121
DA:107,1121
DA:108,1121
DA:109,50
DA:110,189
DA:114,170
DA:115,170
DA:123,1
DA:124,1
DA:125,1
DA:126,1
DA:127,1
DA:128,1
DA:129,1
DA:130,1
DA:131,1
DA:133,1
DA:134,1
DA:135,1
DA:136,1
DA:139,1
DA:140,1
DA:143,9
DA:144,8
DA:145,8
DA:146,8
DA:147,8
DA:148,8
DA:149,8
DA:150,8
DA:151,8
DA:152,8
DA:154,1
DA:155,1
DA:156,1
DA:157,1
DA:158,1
DA:159,1
DA:162,1
DA:163,1
DA:164,1
DA:167,1
DA:168,1
DA:169,1
DA:170,1
DA:171,1
DA:172,1
DA:173,1
DA:174,1
DA:175,1
DA:176,1
DA:177,1
DA:180,1
DA:181,1
DA:182,1
DA:183,1
BRF:0
BRH:0
LF:132
LH:111
end_of_record
SF:/home/piotr/learning/knights/crates/oldtimes-core/src/systems/production.rs
FN:9,_RNvNtNtCsiJMiApqKWrq_13oldtimes_core7systems10production17production_system
FN:96,_RNvNtNtCsiJMiApqKWrq_13oldtimes_core7systems10production19complete_production
FN:82,_RNvNtNtCsiJMiApqKWrq_13oldtimes_core7systems10production19has_required_inputs
FN:91,_RNvNtNtCsiJMiApqKWrq_13oldtimes_core7systems10production21has_space_for_outputs
FN:69,_RNvNtNtCsiJMiApqKWrq_13oldtimes_core7systems10production23start_production_system
FN:140,_RNvNtNtNtCsiJMiApqKWrq_13oldtimes_core7systems10production5testss_24test_has_required_inputs
FN:167,_RNvNtNtNtCsiJMiApqKWrq_13oldtimes_core7systems10production5testss_26test_has_space_for_outputs
FNDA:202,_RNvNtNtCsiJMiApqKWrq_13oldtimes_core7systems10production17production_system
FNDA:0,_RNvNtNtCsiJMiApqKWrq_13oldtimes_core7systems10production19complete_production
FNDA:2,_RNvNtNtCsiJMiApqKWrq_13oldtimes_core7systems10production19has_required_inputs
FNDA:2,_RNvNtNtCsiJMiApqKWrq_13oldtimes_core7systems10production21has_space_for_outputs
FNDA:202,_RNvNtNtCsiJMiApqKWrq_13oldtimes_core7systems10production23start_production_system
FNDA:1,_RNvNtNtNtCsiJMiApqKWrq_13oldtimes_core7systems10production5testss_24test_has_required_inputs
FNDA:1,_RNvNtNtNtCsiJMiApqKWrq_13oldtimes_core7systems10production5testss_26test_has_space_for_outputs
FNF:7
FNH:6
DA:9,202
DA:10,202
DA:11,202
DA:12,202
DA:13,202
DA:14,202
DA:15,202
DA:17,202
DA:18,0
DA:19,0
DA:20,0
DA:21,0
DA:24,0
DA:25,0
DA:27,0
DA:28,0
DA:33,0
DA:34,0
DA:35,0
DA:36,0
DA:37,0
DA:38,0
DA:39,0
DA:40,0
DA:41,0
DA:42,0
DA:43,0
DA:44,0
DA:45,0
DA:46,0
DA:47,0
DA:48,0
DA:49,0
DA:52,0
DA:53,0
DA:54,0
DA:55,0
DA:56,0
DA:57,0
DA:58,0
DA:59,0
DA:60,0
DA:61,0
DA:62,0
DA:63,0
DA:64,0
DA:66,202
DA:69,202
DA:70,202
DA:71,202
DA:72,202
DA:73,202
DA:74,0
DA:75,0
DA:76,0
DA:77,0
DA:78,0
DA:80,202
DA:82,2
DA:83,4
DA:84,3
DA:85,1
DA:86,2
DA:88,1
DA:89,2
DA:91,2
DA:92,2
DA:93,2
DA:94,2
DA:96,0
DA:97,0
DA:98,0
DA:99,0
DA:100,0
DA:101,0
DA:102,0
DA:104,0
DA:105,0
DA:106,0
DA:109,0
DA:110,0
DA:111,0
DA:112,0
DA:113,0
DA:116,0
DA:117,0
DA:118,0
DA:119,0
DA:120,0
DA:121,0
DA:122,0
DA:123,0
DA:124,0
DA:125,0
DA:126,0
DA:127,0
DA:131,0
DA:140,1
DA:141,1
DA:142,1
DA:143,1
DA:144,1
DA:145,1
DA:146,1
DA:147,1
DA:148,1
DA:149,1
DA:150,1
DA:151,1
DA:152,1
DA:153,1
DA:155,1
DA:156,1
DA:157,1
DA:158,1
DA:159,1
DA:160,1
DA:161,1
DA:162,1
DA:163,1
DA:164,1
DA:167,1
DA:168,1
DA:169,1
DA:170,1
DA:171,1
DA:172,1
DA:173,1
DA:174,1
DA:175,1
DA:176,1
DA:177,1
DA:178,1
DA:179,1
DA:181,1
DA:182,1
DA:183,1
DA:184,1
DA:185,1
DA:186,1
DA:187,1
DA:188,1
DA:189,1
DA:190,1
BRF:0
BRH:0
LF:144
LH:73
end_of_record
SF:/home/piotr/learning/knights/crates/oldtimes-core/src/systems/tick.rs
FN:5,_RNvNtNtCsiJMiApqKWrq_13oldtimes_core7systems4tick19advance_tick_system
FN:29,_RNvNtNtCsiJMiApqKWrq_13oldtimes_core7systems4tick22profile_systems_system
FNDA:202,_RNvNtNtCsiJMiApqKWrq_13oldtimes_core7systems4tick19advance_tick_system
FNDA:202,_RNvNtNtCsiJMiApqKWrq_13oldtimes_core7systems4tick22profile_systems_system
FNF:2
FNH:2
DA:5,202
DA:6,202
DA:7,202
DA:8,202
DA:9,202
DA:10,202
DA:11,202
DA:12,202
DA:13,202
DA:14,202
DA:15,202
DA:16,202
DA:17,202
DA:18,202
DA:19,2
DA:20,0
DA:21,0
DA:22,0
DA:25,200
DA:26,202
DA:29,202
DA:30,202
DA:31,202
DA:32,202
DA:33,202
DA:34,0
DA:35,0
DA:36,202
BRF:0
BRH:0
LF:28
LH:23
end_of_record
SF:/home/piotr/learning/knights/crates/oldtimes-core/src/systems/transport.rs
FN:17,_RNCNvNtNtCsiJMiApqKWrq_13oldtimes_core7systems9transport16transport_system0B7_
FN:8,_RNvNtNtCsiJMiApqKWrq_13oldtimes_core7systems9transport16transport_system
FN:118,_RNvNtNtCsiJMiApqKWrq_13oldtimes_core7systems9transport27transport_completion_system
FN:64,_RNvNtNtCsiJMiApqKWrq_13oldtimes_core7systems9transport28resource_distribution_system
FN:176,_RNvNtNtNtCsiJMiApqKWrq_13oldtimes_core7systems9transport5testss_32test_resource_distribution_logic
FNDA:0,_RNCNvNtNtCsiJMiApqKWrq_13oldtimes_core7systems9transport16transport_system0B7_
FNDA:202,_RNvNtNtCsiJMiApqKWrq_13oldtimes_core7systems9transport16transport_system
FNDA:202,_RNvNtNtCsiJMiApqKWrq_13oldtimes_core7systems9transport27transport_completion_system
FNDA:202,_RNvNtNtCsiJMiApqKWrq_13oldtimes_core7systems9transport28resource_distribution_system
FNDA:1,_RNvNtNtNtCsiJMiApqKWrq_13oldtimes_core7systems9transport5testss_32test_resource_distribution_logic
FNF:5
FNH:4
DA:8,202
DA:9,202
DA:10,202
DA:11,202
DA:12,202
DA:13,202
DA:14,202
DA:15,202
DA:17,0
DA:18,0
DA:19,0
DA:21,0
DA:23,0
DA:24,0
DA:26,0
DA:28,0
DA:29,0
DA:31,0
DA:32,0
DA:33,0
DA:34,0
DA:35,0
DA:36,0
DA:37,0
DA:38,0
DA:39,0
DA:40,0
DA:41,0
DA:42,0
DA:43,0
DA:44,0
DA:45,0
DA:46,0
DA:47,0
DA:48,0
DA:54,0
DA:55,0
DA:56,0
DA:58,0
DA:61,202
DA:64,202
DA:65,202
DA:66,202
DA:67,202
DA:68,202
DA:69,202
DA:70,202
DA:71,200
DA:72,2
DA:73,2
DA:74,2
DA:77,2
DA:78,0
DA:79,0
DA:82,0
DA:83,0
DA:84,0
DA:85,0
DA:86,0
DA:87,0
DA:88,0
DA:90,0
DA:91,0
DA:92,0
DA:93,0
DA:94,0
DA:95,0
DA:96,0
DA:97,0
DA:98,0
DA:99,0
DA:100,0
DA:101,0
DA:102,0
DA:108,0
DA:109,0
DA:110,0
DA:112,0
DA:115,202
DA:118,202
DA:119,202
DA:120,202
DA:121,202
DA:122,202
DA:123,202
DA:124,202
DA:125,202
DA:126,0
DA:127,0
DA:128,0
DA:131,0
DA:132,0
DA:133,0
DA:134,0
DA:135,0
DA:136,0
DA:139,0
DA:140,0
DA:141,0
DA:142,0
DA:143,0
DA:144,0
DA:145,0
DA:146,0
DA:147,0
DA:148,0
DA:149,0
DA:150,0
DA:151,0
DA:152,0
DA:153,0
DA:154,0
DA:155,0
DA:156,0
DA:157,0
DA:158,0
DA:159,0
DA:160,0
DA:162,0
DA:165,0
DA:166,0
DA:167,0
DA:169,202
DA:176,1
DA:177,1
DA:178,1
DA:179,1
DA:180,1
DA:181,1
DA:183,1
DA:184,1
DA:185,1
DA:186,1
DA:187,1
DA:188,1
BRF:0
BRH:0
LF:137
LH:43
end_of_record
SF:/home/piotr/learning/knights/crates/oldtimes-core/src/systems/worker.rs
FN:9,_RNvNtNtCsiJMiApqKWrq_13oldtimes_core7systems6worker16worker_ai_system
FN:164,_RNvNtNtCsiJMiApqKWrq_13oldtimes_core7systems6worker20spawn_workers_system
FN:127,_RNvNtNtCsiJMiApqKWrq_13oldtimes_core7systems6worker24worker_assignment_system
FN:180,_RNvNtNtNtCsiJMiApqKWrq_13oldtimes_core7systems6worker5testss_22test_worker_assignment
FNDA:202,_RNvNtNtCsiJMiApqKWrq_13oldtimes_core7systems6worker16worker_ai_system
FNDA:202,_RNvNtNtCsiJMiApqKWrq_13oldtimes_core7systems6worker20spawn_workers_system
FNDA:203,_RNvNtNtCsiJMiApqKWrq_13oldtimes_core7systems6worker24worker_assignment_system
FNDA:1,_RNvNtNtNtCsiJMiApqKWrq_13oldtimes_core7systems6worker5testss_22test_worker_assignment
FNF:4
FNH:4
DA:9,202
DA:10,202
DA:11,202
DA:12,202
DA:13,202
DA:14,202
DA:15,202
DA:16,202
DA:18,990
DA:19,990
DA:22,990
DA:23,0
DA:24,0
DA:25,0
DA:26,0
DA:27,0
DA:28,0
DA:29,0
DA:30,0
DA:31,0
DA:32,0
DA:33,0
DA:34,0
DA:35,0
DA:36,0
DA:37,0
DA:38,0
DA:39,990
DA:42,0
DA:43,0
DA:44,0
DA:45,0
DA:47,0
DA:48,0
DA:49,0
DA:50,0
DA:51,0
DA:52,0
DA:53,0
DA:54,0
DA:56,0
DA:57,0
DA:58,0
DA:59,0
DA:60,0
DA:61,0
DA:62,0
DA:63,0
DA:64,0
DA:65,0
DA:66,0
DA:67,0
DA:68,0
DA:69,0
DA:70,0
DA:71,0
DA:72,0
DA:73,0
DA:74,0
DA:75,0
DA:76,0
DA:77,0
DA:78,0
DA:79,0
DA:80,0
DA:81,0
DA:82,0
DA:83,0
DA:84,0
DA:86,0
DA:89,0
DA:90,0
DA:91,0
DA:92,0
DA:93,0
DA:94,0
DA:95,0
DA:96,0
DA:97,0
DA:98,0
DA:99,0
DA:100,0
DA:101,0
DA:106,0
DA:107,0
DA:108,0
DA:109,0
DA:110,0
DA:111,0
DA:112,0
DA:113,0
DA:114,0
DA:115,0
DA:116,0
DA:117,0
DA:118,0
DA:119,0
DA:120,0
DA:124,202
DA:127,203
DA:128,203
DA:129,203
DA:130,203
DA:131,203
DA:132,203
DA:133,1
DA:135,1
DA:136,0
DA:137,0
DA:138,0
DA:139,0
DA:140,1
DA:143,1
DA:145,1
DA:146,1
DA:147,1
DA:148,1
DA:149,1
DA:150,1
DA:151,0
DA:156,0
DA:158,0
DA:159,0
DA:161,203
DA:164,202
DA:165,202
DA:166,202
DA:167,24
DA:168,20
DA:169,20
DA:170,4
DA:171,198
DA:172,202
DA:180,1
DA:181,1
DA:182,1
DA:183,1
DA:184,1
DA:185,1
DA:186,1
DA:187,1
DA:188,1
DA:189,1
DA:190,1
DA:191,1
DA:192,1
DA:193,1
DA:194,1
DA:195,1
DA:196,1
DA:197,1
DA:198,1
DA:199,1
DA:200,1
DA:201,1
DA:202,1
DA:203,1
DA:204,1
DA:205,1
DA:206,1
DA:207,1
DA:208,1
DA:209,1
DA:210,1
DA:211,1
DA:212,1
BRF:0
BRH:0
LF:166
LH:72
end_of_record
SF:/home/piotr/learning/knights/crates/oldtimes-headless/src/main.rs
FN:171,_RNCNvCs4oynMC9bNyz_17oldtimes_headless14run_simulation0B3_
FN:23,_RNCNvXs2_Cs4oynMC9bNyz_17oldtimes_headlessNtB7_8CommandsNtNtCs6Q8CyGYHKpz_12clap_builder6derive14FromArgMatches20from_arg_matches_mut0B7_
FN:35,_RNCNvXs2_Cs4oynMC9bNyz_17oldtimes_headlessNtB7_8CommandsNtNtCs6Q8CyGYHKpz_12clap_builder6derive14FromArgMatches20from_arg_matches_muts0_0B7_
FN:39,_RNCNvXs2_Cs4oynMC9bNyz_17oldtimes_headlessNtB7_8CommandsNtNtCs6Q8CyGYHKpz_12clap_builder6derive14FromArgMatches20from_arg_matches_muts1_0B7_
FN:45,_RNCNvXs2_Cs4oynMC9bNyz_17oldtimes_headlessNtB7_8CommandsNtNtCs6Q8CyGYHKpz_12clap_builder6derive14FromArgMatches20from_arg_matches_muts2_0B7_
FN:49,_RNCNvXs2_Cs4oynMC9bNyz_17oldtimes_headlessNtB7_8CommandsNtNtCs6Q8CyGYHKpz_12clap_builder6derive14FromArgMatches20from_arg_matches_muts3_0B7_
FN:56,_RNCNvXs2_Cs4oynMC9bNyz_17oldtimes_headlessNtB7_8CommandsNtNtCs6Q8CyGYHKpz_12clap_builder6derive14FromArgMatches20from_arg_matches_muts4_0B7_
FN:60,_RNCNvXs2_Cs4oynMC9bNyz_17oldtimes_headlessNtB7_8CommandsNtNtCs6Q8CyGYHKpz_12clap_builder6derive14FromArgMatches20from_arg_matches_muts5_0B7_
FN:67,_RNCNvXs2_Cs4oynMC9bNyz_17oldtimes_headlessNtB7_8CommandsNtNtCs6Q8CyGYHKpz_12clap_builder6derive14FromArgMatches20from_arg_matches_muts6_0B7_
FN:71,_RNCNvXs2_Cs4oynMC9bNyz_17oldtimes_headlessNtB7_8CommandsNtNtCs6Q8CyGYHKpz_12clap_builder6derive14FromArgMatches20from_arg_matches_muts7_0B7_
FN:75,_RNCNvXs2_Cs4oynMC9bNyz_17oldtimes_headlessNtB7_8CommandsNtNtCs6Q8CyGYHKpz_12clap_builder6derive14FromArgMatches20from_arg_matches_muts8_0B7_
FN:79,_RNCNvXs2_Cs4oynMC9bNyz_17oldtimes_headlessNtB7_8CommandsNtNtCs6Q8CyGYHKpz_12clap_builder6derive14FromArgMatches20from_arg_matches_muts9_0B7_
FN:27,_RNCNvXs2_Cs4oynMC9bNyz_17oldtimes_headlessNtB7_8CommandsNtNtCs6Q8CyGYHKpz_12clap_builder6derive14FromArgMatches20from_arg_matches_muts_0B7_
FN:86,_RNCNvXs2_Cs4oynMC9bNyz_17oldtimes_headlessNtB7_8CommandsNtNtCs6Q8CyGYHKpz_12clap_builder6derive14FromArgMatches20from_arg_matches_mutsa_0B7_
FN:23,_RNCNvXs2_Cs4oynMC9bNyz_17oldtimes_headlessNtB7_8CommandsNtNtCs6Q8CyGYHKpz_12clap_builder6derive14FromArgMatches27update_from_arg_matches_mut0B7_
FN:35,_RNCNvXs2_Cs4oynMC9bNyz_17oldtimes_headlessNtB7_8CommandsNtNtCs6Q8CyGYHKpz_12clap_builder6derive14FromArgMatches27update_from_arg_matches_muts0_0B7_
FN:39,_RNCNvXs2_Cs4oynMC9bNyz_17oldtimes_headlessNtB7_8CommandsNtNtCs6Q8CyGYHKpz_12clap_builder6derive14FromArgMatches27update_from_arg_matches_muts1_0B7_
FN:45,_RNCNvXs2_Cs4oynMC9bNyz_17oldtimes_headlessNtB7_8CommandsNtNtCs6Q8CyGYHKpz_12clap_builder6derive14FromArgMatches27update_from_arg_matches_muts2_0B7_
FN:49,_RNCNvXs2_Cs4oynMC9bNyz_17oldtimes_headlessNtB7_8CommandsNtNtCs6Q8CyGYHKpz_12clap_builder6derive14FromArgMatches27update_from_arg_matches_muts3_0B7_
FN:56,_RNCNvXs2_Cs4oynMC9bNyz_17oldtimes_headlessNtB7_8CommandsNtNtCs6Q8CyGYHKpz_12clap_builder6derive14FromArgMatches27update_from_arg_matches_muts4_0B7_
FN:60,_RNCNvXs2_Cs4oynMC9bNyz_17oldtimes_headlessNtB7_8CommandsNtNtCs6Q8CyGYHKpz_12clap_builder6derive14FromArgMatches27update_from_arg_matches_muts5_0B7_
FN:67,_RNCNvXs2_Cs4oynMC9bNyz_17oldtimes_headlessNtB7_8CommandsNtNtCs6Q8CyGYHKpz_12clap_builder6derive14FromArgMatches27update_from_arg_matches_muts6_0B7_
FN:71,_RNCNvXs2_Cs4oynMC9bNyz_17oldtimes_headlessNtB7_8CommandsNtNtCs6Q8CyGYHKpz_12clap_builder6derive14FromArgMatches27update_from_arg_matches_muts7_0B7_
FN:75,_RNCNvXs2_Cs4oynMC9bNyz_17oldtimes_headlessNtB7_8CommandsNtNtCs6Q8CyGYHKpz_12clap_builder6derive14FromArgMatches27update_from_arg_matches_muts8_0B7_
FN:79,_RNCNvXs2_Cs4oynMC9bNyz_17oldtimes_headlessNtB7_8CommandsNtNtCs6Q8CyGYHKpz_12clap_builder6derive14FromArgMatches27update_from_arg_matches_muts9_0B7_
FN:27,_RNCNvXs2_Cs4oynMC9bNyz_17oldtimes_headlessNtB7_8CommandsNtNtCs6Q8CyGYHKpz_12clap_builder6derive14FromArgMatches27update_from_arg_matches_muts_0B7_
FN:86,_RNCNvXs2_Cs4oynMC9bNyz_17oldtimes_headlessNtB7_8CommandsNtNtCs6Q8CyGYHKpz_12clap_builder6derive14FromArgMatches27update_from_arg_matches_mutsa_0B7_
FN:304,_RNvCs4oynMC9bNyz_17oldtimes_headless12generate_map
FN:134,_RNvCs4oynMC9bNyz_17oldtimes_headless12init_logging
FN:253,_RNvCs4oynMC9bNyz_17oldtimes_headless13run_benchmark
FN:326,_RNvCs4oynMC9bNyz_17oldtimes_headless13validate_data
FN:146,_RNvCs4oynMC9bNyz_17oldtimes_headless14run_simulation
FN:234,_RNvCs4oynMC9bNyz_17oldtimes_headless17replay_simulation
FN:90,_RNvCs4oynMC9bNyz_17oldtimes_headless4main
FNDA:0,_RNCNvCs4oynMC9bNyz_17oldtimes_headless14run_simulation0B3_
FNDA:0,_RNCNvXs2_Cs4oynMC9bNyz_17oldtimes_headlessNtB7_8CommandsNtNtCs6Q8CyGYHKpz_12clap_builder6derive14FromArgMatches20from_arg_matches_mut0B7_
FNDA:0,_RNCNvXs2_Cs4oynMC9bNyz_17oldtimes_headlessNtB7_8CommandsNtNtCs6Q8CyGYHKpz_12clap_builder6derive14FromArgMatches20from_arg_matches_muts0_0B7_
FNDA:0,_RNCNvXs2_Cs4oynMC9bNyz_17oldtimes_headlessNtB7_8CommandsNtNtCs6Q8CyGYHKpz_12clap_builder6derive14FromArgMatches20from_arg_matches_muts1_0B7_
FNDA:0,_RNCNvXs2_Cs4oynMC9bNyz_17oldtimes_headlessNtB7_8CommandsNtNtCs6Q8CyGYHKpz_12clap_builder6derive14FromArgMatches20from_arg_matches_muts2_0B7_
FNDA:0,_RNCNvXs2_Cs4oynMC9bNyz_17oldtimes_headlessNtB7_8CommandsNtNtCs6Q8CyGYHKpz_12clap_builder6derive14FromArgMatches20from_arg_matches_muts3_0B7_
FNDA:0,_RNCNvXs2_Cs4oynMC9bNyz_17oldtimes_headlessNtB7_8CommandsNtNtCs6Q8CyGYHKpz_12clap_builder6derive14FromArgMatches20from_arg_matches_muts4_0B7_
FNDA:0,_RNCNvXs2_Cs4oynMC9bNyz_17oldtimes_headlessNtB7_8CommandsNtNtCs6Q8CyGYHKpz_12clap_builder6derive14FromArgMatches20from_arg_matches_muts5_0B7_
FNDA:0,_RNCNvXs2_Cs4oynMC9bNyz_17oldtimes_headlessNtB7_8CommandsNtNtCs6Q8CyGYHKpz_12clap_builder6derive14FromArgMatches20from_arg_matches_muts6_0B7_
FNDA:0,_RNCNvXs2_Cs4oynMC9bNyz_17oldtimes_headlessNtB7_8CommandsNtNtCs6Q8CyGYHKpz_12clap_builder6derive14FromArgMatches20from_arg_matches_muts7_0B7_
FNDA:0,_RNCNvXs2_Cs4oynMC9bNyz_17oldtimes_headlessNtB7_8CommandsNtNtCs6Q8CyGYHKpz_12clap_builder6derive14FromArgMatches20from_arg_matches_muts8_0B7_
FNDA:0,_RNCNvXs2_Cs4oynMC9bNyz_17oldtimes_headlessNtB7_8CommandsNtNtCs6Q8CyGYHKpz_12clap_builder6derive14FromArgMatches20from_arg_matches_muts9_0B7_
FNDA:0,_RNCNvXs2_Cs4oynMC9bNyz_17oldtimes_headlessNtB7_8CommandsNtNtCs6Q8CyGYHKpz_12clap_builder6derive14FromArgMatches20from_arg_matches_muts_0B7_
FNDA:0,_RNCNvXs2_Cs4oynMC9bNyz_17oldtimes_headlessNtB7_8CommandsNtNtCs6Q8CyGYHKpz_12clap_builder6derive14FromArgMatches20from_arg_matches_mutsa_0B7_
FNDA:0,_RNCNvXs2_Cs4oynMC9bNyz_17oldtimes_headlessNtB7_8CommandsNtNtCs6Q8CyGYHKpz_12clap_builder6derive14FromArgMatches27update_from_arg_matches_mut0B7_
FNDA:0,_RNCNvXs2_Cs4oynMC9bNyz_17oldtimes_headlessNtB7_8CommandsNtNtCs6Q8CyGYHKpz_12clap_builder6derive14FromArgMatches27update_from_arg_matches_muts0_0B7_
FNDA:0,_RNCNvXs2_Cs4oynMC9bNyz_17oldtimes_headlessNtB7_8CommandsNtNtCs6Q8CyGYHKpz_12clap_builder6derive14FromArgMatches27update_from_arg_matches_muts1_0B7_
FNDA:0,_RNCNvXs2_Cs4oynMC9bNyz_17oldtimes_headlessNtB7_8CommandsNtNtCs6Q8CyGYHKpz_12clap_builder6derive14FromArgMatches27update_from_arg_matches_muts2_0B7_
FNDA:0,_RNCNvXs2_Cs4oynMC9bNyz_17oldtimes_headlessNtB7_8CommandsNtNtCs6Q8CyGYHKpz_12clap_builder6derive14FromArgMatches27update_from_arg_matches_muts3_0B7_
FNDA:0,_RNCNvXs2_Cs4oynMC9bNyz_17oldtimes_headlessNtB7_8CommandsNtNtCs6Q8CyGYHKpz_12clap_builder6derive14FromArgMatches27update_from_arg_matches_muts4_0B7_
FNDA:0,_RNCNvXs2_Cs4oynMC9bNyz_17oldtimes_headlessNtB7_8CommandsNtNtCs6Q8CyGYHKpz_12clap_builder6derive14FromArgMatches27update_from_arg_matches_muts5_0B7_
FNDA:0,_RNCNvXs2_Cs4oynMC9bNyz_17oldtimes_headlessNtB7_8CommandsNtNtCs6Q8CyGYHKpz_12clap_builder6derive14FromArgMatches27update_from_arg_matches_muts6_0B7_
FNDA:0,_RNCNvXs2_Cs4oynMC9bNyz_17oldtimes_headlessNtB7_8CommandsNtNtCs6Q8CyGYHKpz_12clap_builder6derive14FromArgMatches27update_from_arg_matches_muts7_0B7_
FNDA:0,_RNCNvXs2_Cs4oynMC9bNyz_17oldtimes_headlessNtB7_8CommandsNtNtCs6Q8CyGYHKpz_12clap_builder6derive14FromArgMatches27update_from_arg_matches_muts8_0B7_
FNDA:0,_RNCNvXs2_Cs4oynMC9bNyz_17oldtimes_headlessNtB7_8CommandsNtNtCs6Q8CyGYHKpz_12clap_builder6derive14FromArgMatches27update_from_arg_matches_muts9_0B7_
FNDA:0,_RNCNvXs2_Cs4oynMC9bNyz_17oldtimes_headlessNtB7_8CommandsNtNtCs6Q8CyGYHKpz_12clap_builder6derive14FromArgMatches27update_from_arg_matches_muts_0B7_
FNDA:0,_RNCNvXs2_Cs4oynMC9bNyz_17oldtimes_headlessNtB7_8CommandsNtNtCs6Q8CyGYHKpz_12clap_builder6derive14FromArgMatches27update_from_arg_matches_mutsa_0B7_
FNDA:0,_RNvCs4oynMC9bNyz_17oldtimes_headless12generate_map
FNDA:0,_RNvCs4oynMC9bNyz_17oldtimes_headless12init_logging
FNDA:0,_RNvCs4oynMC9bNyz_17oldtimes_headless13run_benchmark
FNDA:0,_RNvCs4oynMC9bNyz_17oldtimes_headless13validate_data
FNDA:0,_RNvCs4oynMC9bNyz_17oldtimes_headless14run_simulation
FNDA:0,_RNvCs4oynMC9bNyz_17oldtimes_headless17replay_simulation
FNDA:0,_RNvCs4oynMC9bNyz_17oldtimes_headless4main
FNF:21
FNH:0
DA:23,0
DA:27,0
DA:35,0
DA:39,0
DA:45,0
DA:49,0
DA:56,0
DA:60,0
DA:67,0
DA:71,0
DA:75,0
DA:79,0
DA:86,0
DA:90,0
DA:91,0
DA:92,0
DA:93,0
DA:95,0
DA:96,0
DA:97,0
DA:98,0
DA:99,0
DA:100,0
DA:101,0
DA:102,0
DA:105,0
DA:106,0
DA:107,0
DA:108,0
DA:109,0
DA:112,0
DA:113,0
DA:114,0
DA:115,0
DA:116,0
DA:119,0
DA:120,0
DA:121,0
DA:122,0
DA:123,0
DA:124,0
DA:125,0
DA:127,0
DA:128,0
DA:129,0
DA:132,0
DA:134,0
DA:135,0
DA:136,0
DA:138,0
DA:141,0
DA:142,0
DA:143,0
DA:144,0
DA:146,0
DA:147,0
DA:148,0
DA:154,0
DA:157,0
DA:158,0
DA:159,0
DA:162,0
DA:163,0
DA:164,0
DA:166,0
DA:167,0
DA:171,0
DA:172,0
DA:173,0
DA:174,0
DA:175,0
DA:177,0
DA:178,0
DA:179,0
DA:180,0
DA:183,0
DA:184,0
DA:185,0
DA:188,0
DA:189,0
DA:190,0
DA:191,0
DA:192,0
DA:198,0
DA:201,0
DA:202,0
DA:203,0
DA:204,0
DA:207,0
DA:208,0
DA:209,0
DA:210,0
DA:211,0
DA:214,0
DA:215,0
DA:216,0
DA:218,0
DA:219,0
DA:220,0
DA:221,0
DA:223,0
DA:226,0
DA:227,0
DA:228,0
DA:229,0
DA:231,0
DA:232,0
DA:234,0
DA:235,0
DA:237,0
DA:238,0
DA:239,0
DA:240,0
DA:242,0
DA:243,0
DA:247,0
DA:250,0
DA:251,0
DA:253,0
DA:254,0
DA:255,0
DA:260,0
DA:261,0
DA:263,0
DA:264,0
DA:266,0
DA:267,0
DA:268,0
DA:269,0
DA:270,0
DA:271,0
DA:272,0
DA:273,0
DA:274,0
DA:277,0
DA:278,0
DA:279,0
DA:280,0
DA:281,0
DA:282,0
DA:283,0
DA:284,0
DA:285,0
DA:286,0
DA:287,0
DA:293,0
DA:294,0
DA:295,0
DA:296,0
DA:297,0
DA:298,0
DA:299,0
DA:301,0
DA:302,0
DA:304,0
DA:305,0
DA:307,0
DA:308,0
DA:309,0
DA:310,0
DA:311,0
DA:312,0
DA:313,0
DA:314,0
DA:315,0
DA:316,0
DA:319,0
DA:320,0
DA:322,0
DA:323,0
DA:324,0
DA:326,0
DA:327,0
DA:329,0
DA:330,0
DA:331,0
DA:332,0
DA:333,0
DA:334,0
DA:337,0
DA:338,0
DA:339,0
DA:340,0
DA:341,0
DA:342,0
DA:343,0
DA:346,0
DA:349,0
DA:350,0
DA:352,0
DA:353,0
DA:354,0
DA:358,0
DA:359,0
BRF:0
BRH:0
LF:195
LH:0
end_of_record